(dp0
I0
ccollections
Counter
p1
((dp2
I1
I1
stp3
Rp4
sI1
g1
((dp5
I2
I2
sI3
I2
stp6
Rp7
sI2
g1
((dp8
I4
I3
sI5
I2
sI6
I1
stp9
Rp10
sI3
g1
((dp11
I5
I1
sI6
I2
sI7
I3
stp12
Rp13
sI4
g1
((dp14
I8
I4
sI9
I2
sI10
I1
sI12
I1
stp15
Rp16
sI5
g1
((dp17
I9
I2
sI10
I2
sI11
I3
sI13
I4
sI14
I2
sI15
I1
stp18
Rp19
sI6
g1
((dp20
I16
I4
sI17
I2
sI10
I1
sI12
I3
sI14
I2
sI15
I2
stp21
Rp22
sI7
g1
((dp23
I17
I2
sI18
I4
sI11
I1
sI15
I1
stp24
Rp25
sI8
g1
((dp26
I19
I5
sI20
I2
sI21
I1
sI30
I1
sI23
I1
stp27
Rp28
sI9
g1
((dp29
I32
I1
sI33
I1
sI20
I3
sI21
I2
sI22
I3
sI24
I4
sI25
I2
sI26
I1
sI31
I1
stp30
Rp31
sI10
g1
((dp32
I32
I1
sI34
I2
sI35
I2
sI36
I1
sI37
I1
sI21
I2
sI23
I3
sI25
I2
sI26
I2
sI27
I4
sI28
I2
sI31
I2
stp33
Rp34
sI11
g1
((dp35
I38
I2
sI39
I1
sI40
I1
sI41
I1
sI22
I2
sI26
I1
sI28
I2
sI29
I4
stp36
Rp37
sI12
g1
((dp38
I32
I1
sI33
I2
sI36
I1
sI37
I1
sI42
I2
sI43
I2
sI23
I1
sI30
I4
stp39
Rp40
sI13
g1
((dp41
I34
I1
sI38
I3
sI39
I1
sI24
I1
sI44
I1
sI31
I2
stp42
Rp43
sI14
g1
((dp44
I32
I2
sI34
I2
sI35
I1
sI36
I2
sI39
I2
sI40
I2
sI45
I5
sI46
I2
sI47
I1
sI25
I1
stp45
Rp46
sI15
g1
((dp47
I33
I2
sI35
I2
sI37
I2
sI39
I1
sI40
I1
sI41
I3
sI44
I4
sI46
I2
sI47
I2
sI48
I2
sI49
I2
sI26
I1
stp48
Rp49
sI16
g1
((dp50
I48
I2
sI50
I1
sI36
I1
sI42
I3
sI27
I1
sI46
I1
stp51
Rp52
sI17
g1
((dp53
I37
I1
sI40
I1
sI43
I3
sI47
I2
sI48
I1
sI49
I2
sI50
I4
sI51
I3
sI28
I1
stp54
Rp55
sI18
g1
((dp56
I41
I1
sI51
I2
sI52
I5
sI29
I1
sI49
I1
stp57
Rp58
sI19
g1
((dp59
I64
I1
sI53
I6
sI54
I2
sI55
I1
sI57
I1
sI87
I1
stp60
Rp61
sI20
g1
((dp62
I65
I1
sI66
I1
sI67
I1
sI56
I3
sI54
I4
sI55
I2
sI88
I1
sI89
I1
sI58
I4
sI59
I2
sI60
I1
sI90
I1
stp63
Rp64
sI21
g1
((dp65
I65
I2
sI66
I1
sI68
I2
sI69
I2
sI70
I1
sI71
I1
sI91
I2
sI92
I2
sI93
I1
sI94
I1
sI95
I1
sI96
I1
sI55
I3
sI57
I3
sI59
I2
sI60
I2
sI61
I4
sI62
I2
stp66
Rp67
sI22
g1
((dp68
I97
I1
sI98
I1
sI99
I1
sI100
I1
sI72
I2
sI73
I1
sI74
I1
sI75
I1
sI56
I3
sI60
I1
sI62
I2
sI63
I4
stp69
Rp70
sI23
g1
((dp71
I64
I4
sI66
I1
sI67
I2
sI70
I1
sI71
I1
sI76
I2
sI77
I2
sI88
I2
sI89
I1
sI93
I1
sI94
I1
sI101
I2
sI102
I2
sI115
I1
sI116
I1
sI57
I2
stp72
Rp73
sI24
g1
((dp74
I65
I2
sI68
I1
sI103
I6
sI72
I3
sI73
I1
sI107
I1
sI108
I1
sI78
I1
sI104
I2
sI117
I1
sI105
I1
sI58
I2
stp75
Rp76
sI25
g1
((dp77
I66
I2
sI68
I2
sI69
I1
sI70
I2
sI73
I2
sI74
I2
sI79
I5
sI80
I2
sI81
I1
sI104
I2
sI105
I2
sI106
I3
sI109
I2
sI110
I2
sI111
I1
sI112
I1
sI118
I1
sI119
I1
sI120
I1
sI59
I2
stp78
Rp79
sI26
g1
((dp80
I67
I2
sI69
I2
sI71
I2
sI73
I1
sI74
I1
sI75
I3
sI78
I4
sI80
I2
sI81
I2
sI82
I2
sI83
I2
sI124
I1
sI107
I2
sI108
I1
sI111
I1
sI112
I1
sI113
I2
sI114
I2
sI121
I1
sI122
I1
sI123
I1
sI60
I2
sI125
I1
sI126
I1
stp81
Rp82
sI27
g1
((dp83
I128
I1
sI129
I1
sI133
I1
sI70
I1
sI138
I1
sI76
I3
sI80
I1
sI82
I2
sI84
I1
sI61
I2
sI134
I1
sI127
I2
stp84
Rp85
sI28
g1
((dp86
I130
I2
sI131
I1
sI132
I1
sI71
I1
sI136
I1
sI137
I1
sI74
I1
sI139
I1
sI140
I1
sI77
I3
sI141
I1
sI81
I2
sI82
I1
sI83
I2
sI84
I4
sI85
I3
sI135
I1
sI62
I2
stp87
Rp88
sI29
g1
((dp89
I75
I1
sI142
I2
sI143
I1
sI144
I1
sI145
I1
sI146
I1
sI83
I1
sI85
I2
sI86
I5
sI63
I2
stp90
Rp91
sI30
g1
((dp92
I64
I1
sI96
I1
sI115
I1
sI147
I2
sI148
I2
sI89
I1
sI87
I5
sI116
I1
sI90
I2
sI95
I1
stp93
Rp94
sI31
g1
((dp95
I128
I1
sI65
I1
sI130
I2
sI131
I1
sI149
I1
sI150
I1
sI88
I3
sI91
I4
sI93
I1
sI97
I3
sI98
I1
sI104
I2
sI107
I2
sI109
I2
sI111
I1
sI121
I1
sI122
I1
sI127
I4
stp96
Rp97
sI32
g1
((dp98
I128
I1
sI129
I2
sI66
I1
sI131
I1
sI132
I2
sI118
I2
sI151
I2
sI152
I2
sI153
I1
sI154
I1
sI92
I4
sI93
I1
sI94
I1
sI95
I2
sI98
I2
sI99
I2
sI105
I2
sI108
I2
sI110
I2
sI112
I1
sI89
I3
sI119
I1
sI123
I1
sI124
I1
stp99
Rp100
sI33
g1
((dp101
I67
I1
sI149
I1
sI150
I1
sI153
I1
sI154
I1
sI155
I2
sI156
I2
sI90
I3
sI94
I1
sI96
I2
sI99
I1
sI100
I3
sI108
I1
sI117
I4
sI119
I1
sI120
I2
sI125
I1
sI126
I1
stp102
Rp103
sI34
g1
((dp104
I128
I2
sI68
I1
sI133
I2
sI135
I2
sI136
I1
sI157
I6
sI158
I2
sI159
I1
sI161
I2
sI162
I1
sI163
I1
sI101
I2
sI105
I1
sI109
I2
sI93
I2
sI111
I1
sI113
I2
sI118
I2
sI121
I2
sI123
I1
stp105
Rp106
sI35
g1
((dp107
I69
I1
sI134
I2
sI136
I1
sI137
I2
sI158
I1
sI159
I2
sI160
I3
sI133
I2
sI164
I1
sI165
I1
sI102
I2
sI106
I3
sI111
I1
sI112
I1
sI114
I2
sI94
I2
sI119
I1
sI122
I2
sI124
I1
sI166
I1
stp108
Rp109
sI36
g1
((dp110
I128
I1
sI129
I2
sI134
I1
sI139
I2
sI140
I1
sI149
I2
sI151
I2
sI153
I1
sI101
I2
sI95
I2
sI161
I4
sI162
I1
sI164
I2
sI165
I1
sI167
I4
sI168
I2
sI169
I1
sI170
I1
sI110
I2
sI115
I3
sI119
I1
sI123
I1
sI70
I1
sI125
I2
stp111
Rp112
sI37
g1
((dp113
I131
I1
sI134
I1
sI71
I1
sI138
I4
sI140
I1
sI141
I2
sI150
I2
sI152
I2
sI154
I1
sI96
I2
sI162
I1
sI163
I2
sI165
I1
sI166
I2
sI169
I1
sI170
I1
sI171
I2
sI172
I2
sI112
I1
sI116
I3
sI120
I2
sI124
I1
sI102
I2
sI126
I2
stp114
Rp115
sI38
g1
((dp116
I97
I2
sI130
I2
sI135
I1
sI72
I1
sI107
I1
sI173
I6
sI142
I4
sI143
I1
sI179
I1
sI174
I2
sI121
I1
sI175
I1
stp117
Rp118
sI39
g1
((dp119
I131
I2
sI135
I1
sI136
I1
sI73
I1
sI139
I2
sI98
I2
sI143
I3
sI144
I2
sI149
I2
sI111
I1
sI158
I2
sI162
I1
sI108
I1
sI174
I4
sI175
I2
sI176
I4
sI177
I2
sI180
I2
sI181
I1
sI182
I2
sI183
I1
sI121
I1
sI122
I1
sI123
I1
stp120
Rp121
sI40
g1
((dp122
I132
I2
sI135
I1
sI136
I1
sI137
I1
sI74
I1
sI140
I2
sI144
I2
sI145
I3
sI162
I1
sI99
I2
sI113
I2
sI168
I2
sI175
I2
sI112
I1
sI177
I2
sI178
I4
sI180
I2
sI181
I1
sI184
I2
sI185
I2
sI186
I1
sI187
I1
sI124
I1
sI125
I1
stp123
Rp124
sI41
g1
((dp125
I137
I1
sI75
I1
sI141
I2
sI143
I1
sI145
I1
sI146
I4
sI100
I2
sI114
I2
sI179
I2
sI182
I2
sI183
I1
sI186
I1
sI187
I1
sI188
I2
sI189
I2
sI126
I1
stp126
Rp127
sI42
g1
((dp128
I192
I1
sI129
I1
sI115
I1
sI167
I2
sI169
I1
sI171
I1
sI76
I1
sI147
I4
sI153
I1
sI155
I2
sI190
I6
sI191
I2
stp129
Rp130
sI43
g1
((dp131
I192
I2
sI193
I3
sI132
I1
sI168
I1
sI170
I1
sI172
I1
sI77
I1
sI148
I4
sI116
I1
sI154
I1
sI156
I2
sI191
I1
stp132
Rp133
sI44
g1
((dp134
I194
I2
sI163
I1
sI179
I3
sI78
I1
sI175
I1
sI195
I2
sI181
I1
sI150
I2
sI183
I1
sI122
I1
sI159
I1
sI117
I1
stp135
Rp136
sI45
g1
((dp137
I164
I1
sI79
I1
sI180
I2
sI118
I1
sI151
I2
sI184
I1
sI196
I1
sI158
I1
stp138
Rp139
sI46
g1
((dp140
I133
I1
sI198
I2
sI199
I1
sI80
I1
sI152
I2
sI153
I2
sI197
I6
sI162
I1
sI164
I2
sI165
I1
sI169
I2
sI159
I2
sI176
I2
sI181
I2
sI182
I2
sI119
I1
sI184
I2
sI185
I1
sI186
I2
sI123
I1
stp141
Rp142
sI47
g1
((dp143
I196
I5
sI198
I2
sI199
I2
sI136
I1
sI201
I2
sI81
I1
sI154
I2
sI184
I1
sI160
I3
sI163
I2
sI165
I1
sI166
I1
sI124
I1
sI170
I2
sI177
I2
sI183
I2
sI120
I1
sI185
I2
sI187
I2
sI200
I2
stp144
Rp145
sI48
g1
((dp146
I194
I4
sI203
I1
sI198
I2
sI200
I2
sI202
I4
sI139
I1
sI82
I1
sI155
I2
sI165
I1
sI168
I1
sI169
I1
sI171
I2
sI181
I1
sI186
I1
sI188
I3
sI125
I1
sI134
I1
sI191
I3
stp147
Rp148
sI49
g1
((dp149
I195
I4
sI199
I2
sI137
I1
sI202
I2
sI203
I2
sI204
I3
sI144
I1
sI83
I1
sI156
I2
sI166
I2
sI172
I2
sI189
I3
sI178
I2
sI201
I2
sI186
I1
sI187
I1
sI183
I1
sI126
I1
stp150
Rp151
sI50
g1
((dp152
I192
I3
sI171
I1
sI199
I1
sI200
I2
sI138
I1
sI203
I2
sI140
I1
sI205
I6
sI206
I2
sI84
I1
sI185
I1
sI170
I1
stp153
Rp154
sI51
g1
((dp155
I193
I3
sI201
I2
sI203
I1
sI172
I1
sI141
I1
sI206
I4
sI207
I4
sI145
I1
sI204
I2
sI85
I1
sI187
I1
sI188
I1
stp156
Rp157
sI52
g1
((dp158
I208
I6
sI146
I1
sI86
I1
sI204
I1
sI189
I1
sI207
I2
stp159
Rp160
sI53
g1
((dp161
I209
I7
sI210
I2
sI243
I1
sI213
I1
sI211
I1
sI220
I1
sI365
I1
stp162
Rp163
sI54
g1
((dp164
I214
I4
sI366
I1
sI367
I1
sI368
I1
sI210
I5
sI211
I2
sI212
I3
sI245
I1
sI246
I1
sI215
I2
sI216
I1
sI244
I1
sI221
I1
sI222
I1
sI223
I1
stp165
Rp166
sI55
g1
((dp167
I211
I4
sI213
I3
sI215
I2
sI216
I2
sI217
I4
sI218
I2
sI221
I2
sI222
I1
sI224
I2
sI225
I2
sI226
I1
sI227
I1
sI369
I1
sI370
I1
sI371
I1
sI372
I1
sI373
I1
sI374
I1
sI247
I2
sI248
I2
sI249
I1
sI250
I1
sI251
I1
sI252
I1
stp168
Rp169
sI56
g1
((dp170
I256
I1
sI212
I4
sI216
I1
sI218
I2
sI219
I4
sI228
I2
sI229
I1
sI230
I1
sI231
I1
sI375
I1
sI376
I1
sI377
I1
sI378
I1
sI253
I1
sI254
I1
sI255
I1
stp171
Rp172
sI57
g1
((dp173
I257
I2
sI258
I2
sI271
I1
sI272
I1
sI401
I1
sI402
I1
sI213
I3
sI220
I4
sI222
I1
sI223
I2
sI226
I1
sI227
I1
sI232
I2
sI233
I2
sI369
I1
sI370
I1
sI244
I2
sI245
I1
sI249
I1
sI250
I1
sI379
I2
sI380
I2
sI381
I1
sI382
I1
stp174
Rp175
sI58
g1
((dp176
I384
I1
sI385
I1
sI259
I6
sI260
I2
sI389
I1
sI390
I1
sI263
I1
sI264
I1
sI273
I1
sI403
I1
sI214
I3
sI221
I2
sI261
I1
sI224
I1
sI228
I3
sI229
I1
sI234
I1
sI383
I1
stp177
Rp178
sI59
g1
((dp179
I386
I1
sI387
I1
sI260
I2
sI261
I2
sI262
I3
sI391
I1
sI392
I1
sI265
I2
sI266
I2
sI267
I1
sI268
I1
sI274
I1
sI275
I1
sI276
I1
sI405
I1
sI406
I1
sI215
I3
sI388
I1
sI222
I2
sI224
I2
sI225
I1
sI226
I2
sI229
I2
sI230
I2
sI235
I5
sI236
I2
sI237
I1
sI393
I1
sI404
I1
sI394
I1
stp180
Rp181
sI60
g1
((dp182
I263
I2
sI264
I1
sI267
I1
sI268
I1
sI269
I2
sI270
I2
sI399
I1
sI400
I1
sI280
I1
sI277
I1
sI278
I1
sI279
I1
sI408
I1
sI409
I1
sI282
I1
sI411
I1
sI412
I1
sI410
I1
sI395
I1
sI407
I1
sI396
I1
sI397
I1
sI398
I1
sI216
I3
sI223
I2
sI225
I2
sI227
I2
sI229
I1
sI230
I1
sI231
I3
sI234
I4
sI236
I2
sI237
I2
sI238
I2
sI239
I2
sI281
I1
stp183
Rp184
sI61
g1
((dp185
I290
I1
sI217
I3
sI283
I2
sI284
I1
sI413
I1
sI414
I1
sI415
I1
sI289
I1
sI226
I1
sI419
I1
sI420
I1
sI294
I1
sI232
I3
sI236
I1
sI238
I2
sI285
I1
sI240
I1
sI424
I1
stp186
Rp187
sI62
g1
((dp188
I416
I1
sI230
I1
sI421
I1
sI227
I1
sI218
I3
sI286
I2
sI287
I1
sI288
I1
sI417
I1
sI418
I1
sI291
I1
sI292
I1
sI293
I1
sI422
I1
sI295
I1
sI296
I1
sI297
I1
sI426
I1
sI427
I1
sI237
I2
sI238
I1
sI239
I2
sI240
I4
sI241
I3
sI233
I3
sI423
I1
sI425
I1
stp189
Rp190
sI63
g1
((dp191
I219
I3
sI231
I1
sI300
I1
sI298
I2
sI299
I1
sI428
I1
sI301
I1
sI302
I1
sI239
I1
sI432
I1
sI241
I2
sI242
I5
sI430
I1
sI429
I1
sI431
I1
stp192
Rp193
sI64
g1
((dp194
I243
I5
sI271
I1
sI272
I1
sI303
I2
sI220
I2
sI251
I1
sI252
I1
sI366
I2
sI367
I1
sI304
I2
sI433
I2
sI434
I2
sI371
I1
sI372
I1
sI245
I1
sI246
I2
sI507
I1
sI508
I1
sI381
I1
sI382
I1
stp195
Rp196
sI65
g1
((dp197
I384
I1
sI386
I2
sI387
I1
sI260
I2
sI263
I2
sI265
I2
sI267
I1
sI396
I1
sI277
I1
sI278
I1
sI283
I4
sI284
I1
sI286
I2
sI287
I1
sI305
I1
sI306
I1
sI435
I2
sI436
I2
sI437
I1
sI438
I1
sI441
I1
sI442
I1
sI395
I1
sI453
I1
sI454
I1
sI455
I1
sI456
I1
sI221
I2
sI253
I3
sI244
I3
sI254
I1
sI247
I4
sI249
I1
sI509
I1
sI510
I1
sI383
I4
stp198
Rp199
sI66
g1
((dp200
I384
I2
sI385
I2
sI514
I1
sI387
I1
sI388
I2
sI261
I2
sI391
I1
sI264
I2
sI266
I2
sI268
I1
sI397
I1
sI398
I1
sI274
I2
sI275
I1
sI512
I1
sI279
I1
sI280
I1
sI284
I1
sI285
I2
sI287
I1
sI288
I2
sI392
I1
sI307
I2
sI513
I1
sI309
I1
sI310
I1
sI439
I2
sI440
I2
sI308
I2
sI443
I2
sI444
I2
sI445
I1
sI446
I1
sI437
I1
sI438
I1
sI457
I1
sI458
I1
sI459
I1
sI460
I1
sI222
I2
sI255
I2
sI245
I3
sI248
I4
sI249
I1
sI250
I1
sI251
I2
sI254
I2
sI511
I1
stp201
Rp202
sI67
g1
((dp203
I256
I3
sI515
I1
sI516
I1
sI389
I2
sI390
I1
sI519
I1
sI264
I1
sI393
I1
sI394
I1
sI399
I1
sI400
I1
sI273
I4
sI275
I1
sI276
I2
sI281
I1
sI282
I1
sI517
I1
sI518
I1
sI305
I1
sI520
I1
sI306
I1
sI309
I1
sI310
I1
sI311
I2
sI312
I2
sI441
I1
sI442
I1
sI445
I1
sI446
I1
sI447
I2
sI448
I2
sI223
I2
sI246
I3
sI250
I1
sI252
I2
sI255
I1
stp204
Rp205
sI68
g1
((dp206
I257
I2
sI261
I1
sI265
I2
sI522
I1
sI267
I1
sI269
I2
sI527
I1
sI528
I1
sI529
I1
sI274
I2
sI277
I2
sI279
I1
sI284
I2
sI289
I2
sI291
I2
sI292
I1
sI435
I2
sI437
I1
sI521
I1
sI313
I6
sI314
I2
sI315
I1
sI317
I2
sI318
I1
sI319
I1
sI449
I3
sI450
I2
sI451
I1
sI439
I1
sI461
I2
sI462
I2
sI463
I1
sI464
I1
sI467
I1
sI468
I1
sI469
I1
sI470
I1
sI224
I2
sI523
I1
sI249
I2
stp207
Rp208
sI69
g1
((dp209
I258
I2
sI262
I3
sI267
I1
sI268
I1
sI525
I1
sI270
I2
sI530
I1
sI275
I1
sI532
I1
sI278
I2
sI280
I1
sI289
I2
sI290
I2
sI292
I1
sI293
I2
sI436
I2
sI438
I1
sI440
I1
sI314
I1
sI315
I2
sI316
I3
sI320
I1
sI321
I1
sI450
I1
sI451
I2
sI452
I3
sI524
I1
sI322
I1
sI463
I1
sI464
I1
sI465
I2
sI466
I2
sI526
I1
sI471
I1
sI472
I1
sI473
I1
sI474
I1
sI225
I2
sI531
I1
sI250
I2
stp210
Rp211
sI70
g1
((dp212
I257
I2
sI266
I2
sI279
I1
sI271
I3
sI275
I1
sI533
I1
sI534
I1
sI535
I1
sI536
I1
sI281
I2
sI284
I1
sI285
I2
sI542
I1
sI543
I1
sI544
I1
sI290
I1
sI326
I1
sI550
I1
sI295
I2
sI296
I1
sI541
I1
sI305
I2
sI307
I2
sI309
I1
sI317
I4
sI318
I1
sI325
I1
sI320
I2
sI321
I1
sI323
I4
sI324
I2
sI453
I2
sI454
I1
sI457
I1
sI458
I1
sI467
I1
sI468
I1
sI471
I1
sI472
I1
sI475
I2
sI476
I2
sI477
I1
sI478
I1
sI549
I1
sI226
I2
sI551
I1
sI552
I1
sI251
I2
stp213
Rp214
sI71
g1
((dp215
I258
I2
sI268
I1
sI272
I3
sI276
I2
sI280
I1
sI537
I1
sI282
I2
sI539
I1
sI540
I1
sI538
I1
sI287
I1
sI545
I1
sI290
I1
sI547
I1
sI548
I1
sI294
I4
sI296
I1
sI297
I2
sI554
I1
sI555
I1
sI556
I1
sI328
I2
sI306
I2
sI308
I2
sI310
I1
sI318
I1
sI319
I2
sI321
I1
sI322
I2
sI325
I1
sI326
I1
sI455
I2
sI456
I1
sI459
I1
sI460
I1
sI546
I1
sI469
I1
sI470
I1
sI473
I1
sI474
I1
sI477
I1
sI478
I1
sI479
I2
sI480
I2
sI327
I2
sI227
I2
sI553
I1
sI252
I2
stp216
Rp217
sI72
g1
((dp218
I263
I1
sI329
I6
sI330
I2
sI331
I1
sI335
I1
sI483
I1
sI277
I1
sI228
I2
sI286
I2
sI481
I4
sI482
I2
sI291
I1
sI484
I1
sI487
I1
sI488
I1
sI298
I4
sI299
I1
sI557
I1
sI558
I1
sI495
I1
sI496
I1
sI563
I1
sI253
I2
sI574
I1
stp219
Rp220
sI73
g1
((dp221
I264
I1
sI267
I1
sI277
I1
sI278
I1
sI279
I1
sI287
I2
sI291
I1
sI292
I1
sI295
I2
sI299
I3
sI300
I2
sI559
I1
sI560
I1
sI305
I2
sI562
I1
sI564
I1
sI565
I1
sI566
I1
sI567
I1
sI314
I2
sI318
I1
sI575
I1
sI576
I1
sI577
I1
sI578
I1
sI330
I4
sI331
I2
sI332
I4
sI333
I2
sI336
I2
sI337
I1
sI338
I2
sI339
I1
sI561
I1
sI229
I2
sI483
I2
sI484
I1
sI485
I2
sI486
I2
sI489
I2
sI490
I2
sI491
I1
sI492
I1
sI497
I1
sI498
I1
sI499
I1
sI500
I1
sI254
I2
stp222
Rp223
sI74
g1
((dp224
I324
I2
sI268
I1
sI269
I2
sI280
I1
sI281
I1
sI288
I2
sI291
I1
sI292
I1
sI293
I1
sI296
I2
sI300
I2
sI301
I3
sI568
I1
sI569
I1
sI570
I1
sI571
I1
sI572
I1
sI573
I1
sI318
I1
sI579
I1
sI580
I1
sI581
I1
sI582
I1
sI583
I1
sI584
I1
sI331
I2
sI333
I2
sI334
I4
sI336
I2
sI337
I1
sI340
I2
sI341
I2
sI342
I1
sI343
I1
sI230
I2
sI487
I2
sI488
I1
sI491
I1
sI492
I1
sI493
I2
sI494
I2
sI497
I1
sI498
I1
sI501
I2
sI502
I2
sI503
I1
sI504
I1
sI255
I2
stp225
Rp226
sI75
g1
((dp227
I256
I2
sI270
I2
sI282
I1
sI293
I1
sI297
I2
sI299
I1
sI301
I1
sI302
I4
sI585
I1
sI586
I1
sI587
I1
sI588
I1
sI589
I1
sI590
I1
sI335
I2
sI592
I1
sI338
I2
sI339
I1
sI342
I1
sI343
I1
sI344
I2
sI345
I2
sI591
I1
sI231
I2
sI495
I2
sI496
I1
sI499
I1
sI500
I1
sI503
I1
sI504
I1
sI505
I2
sI506
I2
stp228
Rp229
sI76
g1
((dp230
I323
I2
sI325
I1
sI327
I1
sI271
I1
sI593
I2
sI594
I1
sI595
I1
sI599
I1
sI600
I1
sI601
I1
sI346
I6
sI347
I2
sI348
I1
sI285
I1
sI606
I1
sI607
I1
sI677
I1
sI678
I1
sI679
I1
sI232
I2
sI303
I4
sI309
I1
sI311
I2
sI605
I1
stp231
Rp232
sI77
g1
((dp233
I608
I1
sI324
I1
sI326
I1
sI328
I1
sI681
I1
sI272
I1
sI596
I2
sI597
I1
sI598
I1
sI602
I1
sI347
I1
sI604
I1
sI349
I3
sI288
I1
sI609
I1
sI610
I1
sI603
I1
sI680
I1
sI348
I2
sI682
I1
sI304
I4
sI310
I1
sI233
I2
sI312
I2
stp234
Rp235
sI78
g1
((dp236
I635
I1
sI331
I1
sI335
I3
sI273
I1
sI339
I1
sI278
I1
sI615
I1
sI350
I2
sI351
I2
sI611
I2
sI612
I1
sI613
I1
sI614
I1
sI337
I1
sI616
I1
sI234
I2
sI683
I1
sI684
I1
sI306
I2
sI315
I1
sI636
I1
sI637
I1
sI638
I1
sI319
I1
stp237
Rp238
sI79
g1
((dp239
I320
I1
sI640
I1
sI235
I2
sI336
I2
sI274
I1
sI340
I1
sI352
I1
sI617
I2
sI618
I1
sI619
I1
sI685
I1
sI623
I1
sI624
I1
sI307
I2
sI314
I1
sI639
I1
stp240
Rp241
sI80
g1
((dp242
I641
I1
sI642
I1
sI643
I1
sI644
I1
sI645
I1
sI646
I1
sI647
I1
sI620
I2
sI652
I1
sI653
I1
sI654
I1
sI275
I1
sI279
I1
sI289
I1
sI686
I1
sI687
I1
sI688
I1
sI308
I2
sI309
I2
sI315
I2
sI318
I1
sI320
I2
sI321
I1
sI325
I2
sI332
I2
sI337
I2
sI338
I2
sI340
I2
sI341
I1
sI342
I2
sI353
I6
sI354
I2
sI355
I1
sI236
I2
sI621
I1
sI622
I1
sI625
I1
sI626
I1
sI627
I1
sI628
I1
stp243
Rp244
sI81
g1
((dp245
I648
I1
sI649
I1
sI650
I1
sI651
I1
sI655
I1
sI656
I1
sI657
I1
sI658
I1
sI276
I1
sI280
I1
sI292
I1
sI689
I1
sI690
I1
sI691
I1
sI692
I1
sI693
I1
sI310
I2
sI316
I3
sI319
I2
sI321
I1
sI322
I1
sI694
I1
sI326
I2
sI333
I2
sI339
I2
sI340
I1
sI341
I2
sI343
I2
sI352
I5
sI354
I2
sI355
I2
sI356
I2
sI357
I2
sI237
I2
sI629
I2
sI630
I1
sI631
I1
sI632
I1
sI633
I1
sI634
I1
stp246
Rp247
sI82
g1
((dp248
I659
I2
sI660
I1
sI661
I1
sI665
I1
sI281
I1
sI666
I1
sI667
I1
sI671
I1
sI672
I1
sI673
I1
sI290
I1
sI325
I1
sI295
I1
sI311
I2
sI696
I1
sI697
I1
sI701
I1
sI702
I1
sI703
I1
sI321
I1
sI707
I1
sI324
I1
sI709
I1
sI327
I2
sI695
I1
sI337
I1
sI342
I1
sI344
I3
sI347
I3
sI350
I4
sI354
I2
sI356
I2
sI708
I1
sI358
I4
sI359
I1
sI238
I2
stp249
Rp250
sI83
g1
((dp251
I322
I2
sI662
I2
sI663
I1
sI664
I1
sI282
I1
sI668
I1
sI669
I1
sI670
I1
sI674
I1
sI675
I1
sI676
I1
sI293
I1
sI300
I1
sI328
I2
sI312
I2
sI698
I1
sI699
I1
sI700
I1
sI704
I1
sI705
I1
sI706
I1
sI710
I1
sI711
I1
sI712
I1
sI334
I2
sI339
I1
sI342
I1
sI343
I1
sI345
I3
sI351
I4
sI355
I2
sI357
I2
sI358
I2
sI359
I2
sI360
I3
sI239
I2
stp252
Rp253
sI84
g1
((dp254
I326
I1
sI327
I1
sI713
I2
sI714
I1
sI715
I1
sI716
I1
sI717
I1
sI718
I1
sI723
I1
sI724
I1
sI725
I1
sI726
I1
sI731
I1
sI732
I1
sI355
I1
sI356
I2
sI294
I1
sI359
I2
sI296
I1
sI348
I3
sI362
I2
sI240
I2
sI361
I6
sI341
I1
stp255
Rp256
sI85
g1
((dp257
I328
I1
sI727
I1
sI719
I2
sI720
I1
sI721
I1
sI722
I1
sI343
I1
sI344
I1
sI729
I1
sI730
I1
sI349
I3
sI734
I1
sI735
I1
sI736
I1
sI357
I2
sI359
I1
sI360
I2
sI297
I1
sI362
I4
sI363
I4
sI728
I1
sI301
I1
sI733
I1
sI241
I2
stp258
Rp259
sI86
g1
((dp260
I737
I2
sI738
I1
sI739
I1
sI740
I1
sI741
I1
sI742
I1
sI360
I1
sI363
I2
sI364
I6
sI302
I1
sI242
I2
sI345
I1
stp261
Rp262
sI87
g1
((dp263
I743
I2
sI744
I2
sI365
I6
sI367
I1
sI368
I2
sI401
I1
sI402
I1
sI243
I1
sI373
I1
sI374
I1
sI507
I1
sI508
I1
stp264
Rp265
sI88
g1
((dp266
I384
I1
sI515
I1
sI516
I1
sI389
I2
sI391
I1
sI393
I1
sI459
I1
sI375
I3
sI593
I2
sI594
I1
sI596
I2
sI597
I1
sI407
I1
sI408
I1
sI453
I1
sI745
I1
sI746
I1
sI455
I1
sI366
I4
sI369
I2
sI371
I1
sI244
I1
sI457
I1
sI376
I1
stp267
Rp268
sI89
g1
((dp269
I512
I1
sI385
I2
sI517
I1
sI390
I2
sI392
I1
sI394
I1
sI404
I2
sI405
I1
sI409
I1
sI410
I1
sI518
I1
sI373
I2
sI454
I1
sI456
I1
sI458
I1
sI460
I1
sI594
I1
sI595
I2
sI597
I1
sI598
I2
sI747
I2
sI748
I2
sI749
I1
sI750
I1
sI367
I4
sI370
I2
sI371
I1
sI372
I1
sI245
I1
sI376
I2
sI377
I2
sI511
I1
stp270
Rp271
sI90
g1
((dp272
I513
I1
sI514
I1
sI246
I1
sI390
I1
sI519
I1
sI520
I1
sI403
I4
sI405
I1
sI406
I2
sI411
I1
sI412
I1
sI368
I4
sI745
I1
sI746
I1
sI749
I1
sI750
I1
sI751
I2
sI752
I2
sI372
I1
sI374
I2
sI377
I1
sI378
I3
sI509
I1
sI510
I1
stp273
Rp274
sI91
g1
((dp275
I386
I2
sI391
I1
sI395
I2
sI397
I1
sI461
I1
sI465
I1
sI533
I1
sI534
I1
sI537
I1
sI538
I1
sI463
I1
sI413
I4
sI414
I1
sI416
I2
sI417
I1
sI369
I3
sI753
I1
sI754
I1
sI755
I1
sI247
I1
sI379
I1
stp276
Rp277
sI92
g1
((dp278
I387
I1
sI392
I1
sI396
I2
sI398
I1
sI464
I1
sI466
I1
sI462
I1
sI535
I1
sI536
I1
sI539
I1
sI540
I1
sI414
I1
sI415
I2
sI417
I1
sI418
I2
sI370
I3
sI756
I1
sI757
I1
sI758
I1
sI248
I1
sI380
I1
stp279
Rp280
sI93
g1
((dp281
I768
I1
sI409
I1
sI387
I1
sI391
I1
sI393
I1
sI522
I1
sI407
I2
sI524
I2
sI397
I1
sI399
I2
sI404
I2
sI533
I1
sI535
I1
sI537
I1
sI539
I1
sI541
I1
sI542
I1
sI545
I1
sI546
I1
sI419
I2
sI421
I2
sI422
I1
sI249
I1
sI414
I2
sI521
I2
sI441
I2
sI443
I2
sI445
I1
sI437
I1
sI471
I1
sI525
I1
sI467
I1
sI469
I1
sI599
I2
sI600
I1
sI473
I1
sI602
I2
sI603
I1
sI381
I2
sI371
I3
sI759
I2
sI760
I2
sI761
I1
sI762
I1
sI379
I4
sI765
I1
sI766
I1
sI767
I1
stp282
Rp283
sI94
g1
((dp284
I769
I1
sI770
I1
sI771
I1
sI388
I2
sI393
I1
sI394
I1
sI523
I2
sI525
I1
sI398
I1
sI400
I2
sI408
I2
sI405
I1
sI534
I1
sI536
I1
sI772
I1
sI410
I1
sI540
I1
sI538
I1
sI543
I1
sI544
I1
sI419
I2
sI420
I2
sI422
I1
sI423
I2
sI438
I1
sI442
I2
sI444
I2
sI522
I1
sI446
I1
sI548
I1
sI547
I1
sI468
I1
sI526
I2
sI470
I1
sI472
I1
sI601
I2
sI474
I1
sI603
I1
sI604
I2
sI250
I1
sI600
I1
sI380
I4
sI372
I3
sI761
I1
sI762
I1
sI763
I2
sI764
I2
sI382
I2
stp285
Rp286
sI95
g1
((dp287
I513
I1
sI770
I1
sI773
I2
sI774
I2
sI769
I1
sI392
I1
sI527
I2
sI528
I1
sI401
I3
sI530
I2
sI531
I1
sI405
I1
sI409
I1
sI411
I2
sI415
I2
sI420
I1
sI549
I1
sI550
I1
sI425
I2
sI554
I1
sI775
I1
sI776
I1
sI381
I1
sI509
I2
sI373
I3
sI454
I1
sI765
I1
sI753
I2
sI754
I1
sI756
I2
sI757
I1
sI553
I1
sI251
I1
sI426
I1
sI766
I1
sI511
I1
stp288
Rp289
sI96
g1
((dp290
I512
I1
sI768
I1
sI514
I1
sI427
I2
sI772
I1
sI775
I1
sI776
I1
sI777
I2
sI394
I1
sI528
I1
sI529
I2
sI402
I3
sI531
I1
sI532
I2
sI406
I2
sI410
I1
sI412
I2
sI420
I1
sI551
I1
sI552
I1
sI426
I1
sI555
I1
sI556
I1
sI778
I2
sI374
I3
sI456
I1
sI510
I2
sI424
I4
sI754
I1
sI755
I2
sI757
I1
sI758
I2
sI771
I1
sI252
I1
sI382
I1
sI767
I1
stp291
Rp292
sI97
g1
((dp293
I395
I1
sI585
I1
sI586
I1
sI779
I4
sI780
I2
sI781
I1
sI782
I1
sI429
I1
sI785
I1
sI786
I1
sI407
I1
sI793
I1
sI794
I1
sI416
I2
sI482
I2
sI421
I1
sI428
I4
sI557
I2
sI559
I1
sI560
I1
sI375
I3
sI568
I1
sI569
I1
sI253
I1
stp294
Rp295
sI98
g1
((dp296
I396
I1
sI397
I1
sI782
I1
sI783
I2
sI784
I2
sI787
I2
sI788
I2
sI430
I2
sI790
I1
sI408
I1
sI409
I1
sI795
I1
sI796
I1
sI797
I1
sI798
I1
sI417
I2
sI421
I1
sI422
I1
sI425
I2
sI429
I3
sI558
I2
sI561
I1
sI562
I1
sI564
I1
sI565
I1
sI570
I1
sI571
I1
sI579
I1
sI580
I1
sI587
I1
sI588
I1
sI781
I1
sI484
I1
sI376
I3
sI254
I1
sI789
I1
stp297
Rp298
sI99
g1
((dp299
I398
I1
sI399
I1
sI785
I1
sI786
I1
sI789
I1
sI790
I1
sI791
I2
sI792
I2
sI410
I1
sI411
I1
sI796
I1
sI799
I2
sI800
I2
sI801
I1
sI802
I1
sI795
I1
sI422
I1
sI423
I1
sI426
I2
sI430
I2
sI431
I3
sI563
I2
sI566
I1
sI567
I1
sI572
I1
sI573
I1
sI575
I1
sI576
I1
sI581
I1
sI582
I1
sI418
I2
sI590
I1
sI589
I1
sI488
I1
sI377
I3
sI255
I1
stp300
Rp301
sI100
g1
((dp302
I256
I1
sI577
I1
sI578
I1
sI583
I1
sI584
I1
sI591
I1
sI400
I1
sI793
I1
sI794
I1
sI412
I1
sI797
I1
sI798
I1
sI801
I1
sI802
I1
sI803
I2
sI804
I2
sI423
I1
sI427
I2
sI431
I1
sI432
I4
sI496
I1
sI592
I1
sI378
I3
sI574
I2
stp303
Rp304
sI101
g1
((dp305
I257
I1
sI515
I2
sI517
I1
sI609
I1
sI457
I1
sI759
I1
sI381
I2
sI475
I1
sI541
I1
sI606
I1
sI543
I1
sI608
I2
sI545
I1
sI547
I1
sI763
I1
sI805
I3
sI806
I2
sI807
I1
sI809
I1
sI810
I1
sI811
I1
sI605
I2
sI511
I1
sI433
I3
sI439
I1
sI761
I1
sI477
I1
sI479
I1
sI445
I1
sI447
I2
stp306
Rp307
sI102
g1
((dp308
I512
I1
sI448
I2
sI258
I1
sI516
I2
sI518
I1
sI459
I1
sI606
I1
sI760
I1
sI382
I2
sI480
I1
sI476
I1
sI542
I1
sI607
I2
sI544
I1
sI609
I1
sI546
I1
sI548
I1
sI806
I1
sI807
I2
sI808
I3
sI610
I2
sI812
I1
sI813
I1
sI814
I1
sI434
I3
sI478
I1
sI440
I1
sI762
I1
sI764
I1
sI446
I1
stp309
Rp310
sI103
g1
((dp311
I481
I3
sI611
I1
sI612
I1
sI485
I1
sI449
I1
sI483
I1
sI435
I1
sI815
I1
sI259
I1
sI383
I2
stp312
Rp313
sI104
g1
((dp314
I384
I2
sI386
I2
sI491
I1
sI260
I1
sI453
I2
sI486
I1
sI450
I1
sI461
I2
sI467
I1
sI482
I3
sI483
I2
sI484
I1
sI613
I1
sI614
I1
sI561
I1
sI489
I2
sI618
I1
sI487
I2
sI620
I2
sI621
I1
sI559
I1
sI816
I1
sI817
I1
sI818
I1
sI435
I2
sI436
I1
sI437
I1
sI630
I1
sI617
I5
sI629
I1
stp315
Rp316
sI105
g1
((dp317
I385
I2
sI387
I2
sI261
I1
sI521
I1
sI527
I1
sI491
I1
sI819
I2
sI564
I1
sI437
I1
sI438
I1
sI439
I1
sI824
I1
sI820
I2
sI821
I1
sI449
I3
sI451
I1
sI566
I1
sI454
I2
sI493
I2
sI616
I1
sI823
I1
sI462
I2
sI467
I1
sI468
I1
sI475
I2
sI484
I2
sI485
I2
sI615
I1
sI488
I2
sI490
I2
sI619
I2
sI492
I1
sI621
I1
sI622
I2
sI625
I1
sI626
I1
sI822
I1
sI631
I1
sI632
I1
sI618
I2
stp318
Rp319
sI106
g1
((dp320
I450
I1
sI452
I1
sI262
I1
sI468
I1
sI633
I1
sI388
I2
sI476
I2
sI826
I1
sI486
I2
sI492
I1
sI494
I2
sI623
I1
sI624
I1
sI627
I1
sI628
I1
sI440
I1
sI825
I1
sI634
I1
sI827
I1
sI828
I1
stp321
Rp322
sI107
g1
((dp323
I389
I2
sI263
I1
sI395
I2
sI659
I2
sI660
I1
sI662
I2
sI663
I1
sI497
I1
sI557
I3
sI558
I1
sI559
I1
sI560
I1
sI562
I1
sI436
I2
sI441
I1
sI829
I2
sI830
I2
sI831
I1
sI832
I1
sI455
I2
sI463
I1
sI611
I4
sI469
I1
sI854
I1
sI483
I1
sI613
I1
sI487
I1
sI620
I2
sI495
I3
sI625
I1
sI499
I1
sI629
I2
sI631
I1
sI635
I1
sI636
I1
sI853
I1
stp324
Rp325
sI108
g1
((dp326
I390
I2
sI577
I1
sI264
I1
sI522
I1
sI396
I2
sI528
I1
sI660
I1
sI661
I2
sI663
I1
sI664
I2
sI561
I1
sI498
I1
sI558
I2
sI816
I2
sI817
I1
sI563
I2
sI565
I1
sI438
I1
sI567
I1
sI441
I1
sI442
I1
sI575
I1
sI832
I1
sI833
I2
sI834
I2
sI822
I1
sI456
I2
sI464
I1
sI821
I1
sI470
I1
sI855
I2
sI856
I2
sI857
I1
sI858
I1
sI612
I4
sI485
I2
sI614
I1
sI488
I1
sI621
I1
sI509
I2
sI496
I3
sI626
I1
sI500
I1
sI630
I2
sI632
I1
sI831
I1
sI637
I1
sI638
I1
stp327
Rp328
sI109
g1
((dp329
I644
I2
sI645
I1
sI391
I2
sI648
I1
sI521
I2
sI533
I2
sI265
I1
sI541
I1
sI457
I2
sI625
I1
sI559
I2
sI564
I1
sI437
I1
sI649
I1
sI568
I2
sI570
I1
sI443
I1
sI835
I7
sI836
I2
sI837
I1
sI838
I2
sI839
I1
sI841
I1
sI842
I1
sI461
I2
sI463
I1
sI471
I1
sI859
I1
sI860
I1
sI861
I1
sI489
I1
sI618
I2
sI623
I2
sI497
I2
sI627
I1
sI501
I1
stp330
Rp331
sI110
g1
((dp332
I646
I1
sI647
I1
sI392
I2
sI266
I1
sI651
I1
sI527
I2
sI541
I1
sI549
I2
sI498
I2
sI561
I2
sI566
I1
sI439
I2
sI570
I1
sI572
I2
sI650
I1
sI838
I1
sI839
I1
sI840
I1
sI458
I2
sI843
I2
sI844
I2
sI845
I1
sI846
I1
sI464
I1
sI467
I1
sI472
I1
sI862
I1
sI863
I1
sI864
I1
sI444
I1
sI490
I1
sI619
I2
sI624
I2
sI626
I1
sI628
I1
sI502
I1
stp333
Rp334
sI111
g1
((dp335
I522
I1
sI267
I1
sI534
I2
sI542
I1
sI560
I2
sI564
I1
sI565
I1
sI569
I2
sI571
I1
sI836
I2
sI837
I2
sI839
I1
sI840
I2
sI847
I2
sI848
I2
sI849
I1
sI850
I1
sI865
I1
sI866
I1
sI867
I1
sI868
I1
sI613
I2
sI615
I2
sI873
I1
sI874
I1
sI875
I1
sI876
I1
sI621
I1
sI623
I2
sI627
I1
sI631
I1
sI633
I2
sI639
I2
sI641
I2
sI642
I1
sI644
I2
sI645
I1
sI646
I1
sI648
I1
sI393
I2
sI650
I1
sI652
I2
sI397
I2
sI655
I1
sI656
I1
sI665
I2
sI666
I1
sI668
I2
sI669
I1
sI438
I1
sI445
I1
sI450
I2
sI459
I2
sI463
I1
sI465
I2
sI469
I1
sI471
I1
sI473
I1
sI477
I2
sI489
I2
sI491
I1
sI499
I2
sI501
I2
sI503
I2
stp336
Rp337
sI112
g1
((dp338
I268
I1
sI614
I2
sI528
I1
sI542
I1
sI550
I2
sI562
I2
sI566
I1
sI567
I1
sI571
I1
sI573
I2
sI841
I1
sI842
I1
sI845
I1
sI846
I1
sI849
I1
sI850
I1
sI851
I2
sI852
I2
sI654
I1
sI869
I1
sI870
I1
sI871
I1
sI616
I2
sI877
I1
sI878
I1
sI879
I1
sI880
I1
sI872
I1
sI628
I1
sI632
I1
sI634
I2
sI639
I2
sI640
I2
sI642
I1
sI643
I2
sI645
I1
sI647
I1
sI649
I1
sI394
I2
sI651
I1
sI653
I1
sI398
I2
sI657
I1
sI658
I1
sI622
I2
sI666
I1
sI667
I2
sI669
I1
sI670
I2
sI440
I2
sI446
I1
sI451
I2
sI460
I2
sI466
I2
sI469
I1
sI470
I1
sI472
I1
sI474
I1
sI478
I2
sI491
I1
sI492
I1
sI500
I2
sI502
I2
sI504
I2
stp339
Rp340
sI113
g1
((dp341
I451
I1
sI645
I1
sI503
I1
sI653
I1
sI399
I2
sI635
I2
sI657
I1
sI269
I1
sI895
I1
sI505
I3
sI473
I1
sI655
I1
sI671
I2
sI672
I1
sI674
I2
sI675
I1
sI881
I1
sI493
I1
sI637
I1
sI497
I1
sI882
I1
sI883
I1
sI447
I1
sI887
I1
sI888
I1
sI889
I1
sI479
I2
sI893
I1
sI894
I1
sI575
I1
stp342
Rp343
sI114
g1
((dp344
I896
I1
sI897
I1
sI898
I1
sI452
I3
sI577
I1
sI652
I2
sI270
I1
sI656
I1
sI658
I1
sI448
I1
sI654
I1
sI474
I1
sI506
I3
sI672
I1
sI673
I2
sI675
I1
sI676
I2
sI636
I2
sI480
I2
sI494
I1
sI400
I2
sI499
I1
sI884
I1
sI885
I1
sI886
I1
sI504
I1
sI890
I1
sI891
I1
sI892
I1
sI638
I1
stp345
Rp346
sI115
g1
((dp347
I513
I1
sI771
I1
sI900
I2
sI517
I1
sI902
I1
sI519
I2
sI271
I1
sI401
I2
sI899
I2
sI901
I1
sI677
I2
sI678
I1
sI551
I1
sI680
I2
sI809
I2
sI810
I1
sI555
I1
sI812
I2
sI813
I1
sI433
I2
sI769
I1
sI458
I1
sI594
I1
sI549
I1
sI553
I1
sI745
I2
sI747
I2
sI749
I1
sI681
I1
sI507
I4
sI765
I1
sI767
I1
stp348
Rp349
sI116
g1
((dp350
I768
I1
sI514
I1
sI772
I1
sI901
I1
sI518
I1
sI903
I2
sI520
I2
sI770
I1
sI272
I1
sI402
I2
sI682
I2
sI902
I1
sI550
I1
sI679
I2
sI552
I1
sI681
I1
sI810
I1
sI811
I2
sI556
I1
sI813
I1
sI814
I2
sI904
I2
sI434
I2
sI460
I1
sI597
I1
sI678
I1
sI746
I2
sI748
I2
sI750
I1
sI508
I4
sI554
I1
sI766
I1
stp351
Rp352
sI117
g1
((dp353
I576
I1
sI578
I1
sI905
I2
sI906
I2
sI523
I1
sI529
I1
sI403
I2
sI853
I1
sI854
I1
sI857
I1
sI858
I1
sI612
I1
sI273
I1
sI683
I1
sI684
I1
sI815
I6
sI817
I1
sI818
I2
sI563
I1
sI510
I2
sI823
I1
sI824
I1
sI442
I1
sI574
I3
stp354
Rp355
sI118
g1
((dp356
I646
I1
sI522
I1
sI907
I2
sI908
I2
sI653
I1
sI910
I1
sI913
I1
sI530
I1
sI404
I2
sI535
I2
sI543
I1
sI274
I1
sI816
I2
sI689
I1
sI690
I1
sI819
I4
sI564
I1
sI821
I1
sI841
I1
sI825
I3
sI826
I1
sI443
I2
sI575
I2
sI579
I2
sI581
I1
sI838
I2
sI524
I1
sI843
I2
sI845
I1
sI462
I2
sI909
I1
sI865
I1
sI866
I1
sI869
I1
sI870
I1
sI618
I1
sI619
I1
sI914
I1
sI639
I1
sI511
I2
stp357
Rp358
sI119
g1
((dp359
I512
I2
sI513
I2
sI523
I2
sI525
I1
sI528
I1
sI531
I1
sI536
I2
sI543
I1
sI544
I1
sI551
I2
sI817
I2
sI820
I4
sI565
I1
sI566
I1
sI823
I2
sI826
I2
sI827
I2
sI821
I1
sI576
I2
sI577
I2
sI580
I2
sI581
I1
sI582
I1
sI839
I1
sI275
I1
sI842
I1
sI844
I2
sI846
I1
sI910
I1
sI859
I2
sI860
I1
sI862
I2
sI863
I1
sI867
I1
sI868
I1
sI871
I1
sI872
I1
sI873
I1
sI874
I1
sI877
I1
sI878
I1
sI624
I2
sI822
I1
sI917
I1
sI640
I2
sI647
I1
sI909
I1
sI654
I1
sI621
I1
sI912
I2
sI915
I2
sI916
I2
sI405
I2
sI918
I1
sI583
I2
sI686
I2
sI687
I1
sI691
I1
sI692
I1
sI444
I2
sI445
I1
sI464
I1
sI468
I1
sI911
I2
stp360
Rp361
sI120
g1
((dp362
I640
I1
sI514
I2
sI406
I2
sI526
I1
sI529
I2
sI914
I1
sI276
I1
sI917
I1
sI918
I1
sI919
I2
sI920
I2
sI544
I1
sI552
I2
sI685
I5
sI687
I1
sI688
I2
sI818
I2
sI693
I1
sI694
I1
sI567
I1
sI824
I2
sI827
I1
sI828
I3
sI446
I1
sI578
I2
sI822
I1
sI582
I1
sI584
I2
sI470
I1
sI860
I1
sI861
I2
sI863
I1
sI864
I2
sI913
I1
sI875
I1
sI876
I1
sI879
I1
sI880
I1
sI630
I1
sI532
I1
stp363
Rp364
sI121
g1
((dp365
I641
I2
sI515
I2
sI537
I2
sI648
I1
sI524
I2
sI781
I2
sI655
I1
sI277
I1
sI407
I2
sI921
I2
sI922
I2
sI923
I1
sI926
I2
sI927
I1
sI928
I1
sI545
I1
sI585
I3
sI625
I1
sI940
I1
sI941
I1
sI942
I1
sI943
I1
sI560
I1
sI695
I2
sI568
I1
sI441
I1
sI698
I2
sI699
I1
sI816
I2
sI829
I4
sI831
I1
sI579
I1
sI836
I2
sI929
I1
sI841
I1
sI587
I1
sI463
I1
sI696
I1
sI847
I2
sI484
I1
sI613
I1
sI849
I1
sI881
I2
sI882
I1
sI884
I2
sI885
I1
sI635
I2
sI559
I1
stp366
Rp367
sI122
g1
((dp368
I642
I1
sI516
I2
sI649
I1
sI525
I1
sI656
I1
sI627
I1
sI278
I1
sI408
I2
sI538
I2
sI923
I1
sI924
I2
sI922
I2
sI546
I1
sI931
I1
sI932
I1
sI933
I1
sI817
I1
sI562
I1
sI486
I2
sI925
I2
sI944
I1
sI945
I1
sI946
I1
sI947
I1
sI696
I1
sI569
I1
sI442
I1
sI699
I1
sI700
I2
sI586
I3
sI830
I4
sI832
I1
sI580
I1
sI837
I2
sI842
I1
sI588
I1
sI930
I1
sI848
I2
sI465
I2
sI850
I1
sI697
I2
sI613
I1
sI614
I1
sI882
I1
sI883
I2
sI885
I1
sI886
I2
sI636
I2
stp369
Rp370
sI123
g1
((dp371
I517
I2
sI525
I1
sI530
I2
sI279
I1
sI539
I2
sI545
I1
sI547
I1
sI553
I2
sI565
I1
sI570
I1
sI821
I1
sI833
I2
sI581
I1
sI701
I2
sI839
I1
sI587
I2
sI589
I2
sI849
I1
sI851
I2
sI865
I1
sI867
I1
sI869
I1
sI615
I2
sI871
I1
sI957
I1
sI625
I1
sI626
I1
sI887
I2
sI888
I1
sI890
I2
sI891
I1
sI637
I2
sI831
I2
sI642
I1
sI646
I1
sI650
I1
sI657
I1
sI409
I2
sI926
I2
sI927
I1
sI930
I1
sI931
I1
sI934
I2
sI935
I2
sI936
I1
sI937
I1
sI686
I2
sI689
I2
sI691
I1
sI948
I2
sI949
I2
sI950
I1
sI951
I1
sI954
I1
sI955
I1
sI956
I1
sI445
I1
sI702
I1
sI704
I2
sI705
I1
sI845
I1
sI464
I1
sI471
I1
sI490
I2
stp372
Rp373
sI124
g1
((dp374
I518
I2
sI526
I2
sI531
I1
sI280
I1
sI540
I2
sI546
I1
sI548
I1
sI554
I2
sI822
I1
sI567
I1
sI571
I1
sI832
I2
sI834
I2
sI582
I1
sI840
I2
sI588
I2
sI590
I2
sI850
I1
sI852
I2
sI702
I1
sI866
I1
sI868
I1
sI870
I1
sI616
I2
sI872
I1
sI628
I1
sI958
I1
sI631
I1
sI888
I1
sI889
I2
sI703
I2
sI892
I2
sI638
I2
sI643
I2
sI705
I1
sI651
I1
sI653
I1
sI658
I1
sI410
I2
sI928
I1
sI929
I1
sI932
I1
sI933
I1
sI936
I1
sI937
I1
sI938
I2
sI939
I2
sI687
I1
sI690
I2
sI692
I1
sI950
I1
sI951
I1
sI952
I2
sI953
I2
sI446
I1
sI959
I1
sI960
I1
sI961
I1
sI706
I2
sI466
I2
sI846
I1
sI473
I1
sI891
I1
sI492
I1
stp375
Rp376
sI125
g1
((dp377
I896
I2
sI897
I1
sI683
I4
sI519
I2
sI531
I1
sI660
I1
sI281
I1
sI411
I2
sI547
I1
sI555
I2
sI940
I1
sI941
I1
sI687
I1
sI944
I1
sI945
I1
sI691
I1
sI693
I2
sI954
I1
sI955
I1
sI572
I1
sI958
I1
sI447
I2
sI576
I1
sI962
I2
sI707
I2
sI964
I1
sI965
I1
sI710
I2
sI583
I1
sI589
I1
sI591
I3
sI853
I2
sI855
I2
sI472
I1
sI857
I1
sI637
I1
sI708
I1
sI873
I1
sI875
I1
sI647
I1
sI877
I1
sI711
I1
sI879
I1
sI498
I1
sI894
I1
sI959
I1
sI893
I2
sI963
I2
stp378
Rp379
sI126
g1
((dp380
I897
I1
sI898
I2
sI520
I2
sI684
I4
sI654
I1
sI532
I2
sI663
I1
sI708
I1
sI282
I1
sI412
I2
sI474
I1
sI709
I2
sI548
I1
sI711
I1
sI556
I2
sI942
I1
sI943
I1
sI688
I2
sI584
I1
sI946
I1
sI947
I1
sI692
I1
sI694
I2
sI956
I1
sI573
I1
sI960
I1
sI961
I1
sI578
I1
sI964
I1
sI965
I1
sI966
I2
sI967
I2
sI712
I2
sI590
I1
sI592
I3
sI854
I2
sI856
I2
sI858
I1
sI448
I2
sI874
I1
sI876
I1
sI878
I1
sI957
I1
sI880
I1
sI500
I1
sI638
I1
sI894
I1
sI895
I2
stp381
Rp382
sI127
g1
((dp383
I644
I1
sI453
I1
sI713
I1
sI714
I1
sI779
I3
sI781
I1
sI783
I1
sI593
I3
sI659
I2
sI533
I1
sI983
I1
sI665
I1
sI922
I1
sI283
I1
sI924
I1
sI413
I2
sI620
I1
sI599
I1
stp384
Rp385
sI128
g1
((dp386
I645
I1
sI646
I1
sI907
I2
sI781
I2
sI785
I2
sI787
I2
sI660
I2
sI533
I1
sI534
I1
sI535
I1
sI665
I1
sI666
I1
sI284
I1
sI541
I1
sI414
I2
sI671
I2
sI928
I1
sI930
I1
sI859
I2
sI932
I1
sI454
I1
sI934
I1
sI625
I1
sI926
I2
sI695
I2
sI701
I1
sI838
I2
sI968
I2
sI457
I1
sI970
I1
sI715
I1
sI716
I1
sI594
I3
sI467
I1
sI599
I2
sI600
I1
sI985
I1
sI986
I1
sI987
I1
sI605
I2
sI865
I1
sI873
I1
sI621
I1
sI753
I4
sI984
I1
sI759
I2
sI765
I1
sI789
I1
stp387
Rp388
sI129
g1
((dp389
I773
I2
sI647
I1
sI907
I2
sI909
I1
sI783
I2
sI661
I2
sI791
I2
sI536
I1
sI667
I1
sI285
I1
sI415
I2
sI549
I1
sI934
I1
sI936
I1
sI938
I1
sI605
I1
sI701
I1
sI707
I2
sI458
I1
sI717
I1
sI718
I1
sI595
I3
sI599
I1
sI601
I1
sI475
I2
sI988
I2
sI989
I2
sI990
I1
sI991
I1
sI992
I1
sI993
I1
sI911
I1
sI677
I3
sI626
I1
sI765
I1
sI789
I1
stp390
Rp391
sI130
g1
((dp392
I455
I1
sI648
I1
sI713
I4
sI715
I1
sI780
I3
sI782
I1
sI719
I3
sI784
I1
sI659
I1
sI596
I3
sI662
I2
sI921
I1
sI537
I1
sI602
I1
sI923
I1
sI668
I1
sI925
I1
sI286
I1
sI416
I2
sI720
I1
sI994
I1
sI995
I1
sI998
I1
sI487
I1
sI629
I2
sI695
I1
sI568
I1
stp393
Rp394
sI131
g1
((dp395
I665
I1
sI649
I1
sI650
I1
sI782
I2
sI786
I2
sI788
I2
sI790
I1
sI663
I2
sI537
I1
sI538
I1
sI539
I1
sI669
I1
sI287
I1
sI417
I2
sI931
I1
sI933
I1
sI570
I1
sI927
I1
sI701
I1
sI459
I1
sI929
I1
sI456
I1
sI841
I1
sI714
I4
sI715
I1
sI716
I1
sI717
I2
sI720
I2
sI721
I2
sI597
I3
sI984
I1
sI986
I1
sI603
I1
sI860
I1
sI866
I1
sI996
I1
sI997
I1
sI999
I2
sI1000
I1
sI1001
I2
sI874
I1
sI491
I1
sI754
I2
sI630
I2
sI631
I1
sI760
I2
sI1002
I1
sI766
I1
stp396
Rp397
sI132
g1
((dp398
I774
I2
sI651
I1
sI908
I2
sI910
I1
sI493
I2
sI784
I2
sI664
I2
sI790
I1
sI792
I2
sI540
I1
sI670
I1
sI671
I1
sI288
I1
sI418
I2
sI935
I1
sI937
I1
sI939
I1
sI572
I1
sI707
I1
sI716
I1
sI460
I1
sI718
I2
sI721
I1
sI722
I3
sI598
I3
sI602
I1
sI604
I1
sI912
I1
sI1003
I1
sI1004
I1
sI1005
I1
sI1006
I1
sI1007
I1
sI1008
I1
sI632
I1
sI766
I1
stp399
Rp400
sI133
g1
((dp401
I641
I1
sI644
I1
sI1029
I1
sI652
I1
sI653
I1
sI1028
I1
sI666
I1
sI922
I2
sI542
I1
sI543
I1
sI672
I2
sI289
I1
sI930
I1
sI419
I2
sI936
I1
sI686
I1
sI627
I1
sI696
I2
sI702
I1
sI928
I1
sI968
I2
sI969
I2
sI971
I4
sI972
I2
sI973
I2
sI974
I1
sI909
I1
sI723
I1
sI468
I1
sI471
I1
sI600
I2
sI859
I2
sI606
I2
sI865
I1
sI622
I1
sI1009
I2
sI1010
I2
sI1011
I1
sI1012
I1
sI724
I1
stp402
Rp403
sI134
g1
((dp404
I642
I1
sI1030
I2
sI1031
I2
sI1032
I1
sI1033
I1
sI654
I1
sI911
I1
sI472
I1
sI601
I2
sI665
I1
sI667
I1
sI924
I2
sI544
I1
sI673
I2
sI290
I1
sI420
I2
sI678
I3
sI551
I1
sI938
I1
sI687
I1
sI628
I1
sI606
I1
sI697
I2
sI607
I2
sI702
I1
sI703
I1
sI708
I2
sI968
I2
sI970
I1
sI973
I2
sI974
I1
sI975
I4
sI976
I2
sI725
I1
sI726
I1
sI984
I1
sI985
I1
sI932
I1
sI476
I2
sI477
I1
sI990
I1
sI991
I1
sI550
I1
sI873
I1
sI1011
I1
sI1012
I1
sI1013
I2
sI1014
I2
stp405
Rp406
sI135
g1
((dp407
I648
I1
sI1034
I1
sI1035
I2
sI908
I2
sI655
I1
sI785
I2
sI1042
I1
sI660
I1
sI921
I2
sI668
I1
sI927
I1
sI928
I1
sI545
I1
sI674
I2
sI291
I1
sI421
I2
sI497
I1
sI935
I1
sI977
I4
sI940
I1
sI841
I1
sI689
I2
sI969
I2
sI696
I1
sI569
I1
sI698
I2
sI704
I1
sI579
I1
sI1036
I1
sI715
I2
sI568
I1
sI978
I2
sI723
I2
sI469
I1
sI727
I3
sI728
I1
sI602
I2
sI608
I2
sI1041
I1
sI488
I1
sI881
I2
sI979
I1
sI1015
I2
sI1016
I2
sI1017
I1
sI1020
I1
sI1021
I1
sI631
I1
stp408
Rp409
sI136
g1
((dp410
I1024
I1
sI1025
I1
sI1037
I1
sI1038
I1
sI1039
I1
sI1040
I1
sI1043
I1
sI1044
I1
sI1045
I1
sI1046
I1
sI473
I1
sI981
I2
sI546
I1
sI547
I1
sI292
I1
sI723
I2
sI571
I1
sI581
I1
sI603
I2
sI860
I1
sI609
I2
sI866
I1
sI632
I1
sI633
I2
sI648
I1
sI649
I1
sI910
I1
sI655
I1
sI656
I1
sI657
I1
sI666
I1
sI923
I2
sI669
I1
sI928
I1
sI929
I1
sI931
I1
sI422
I2
sI937
I1
sI690
I2
sI691
I1
sI699
I2
sI702
I1
sI705
I1
sI716
I2
sI970
I2
sI972
I2
sI974
I1
sI978
I2
sI675
I2
sI724
I2
sI725
I2
sI470
I1
sI728
I2
sI729
I2
sI492
I1
sI979
I2
sI501
I2
sI1016
I2
sI1017
I1
sI1018
I2
sI1019
I2
sI980
I4
sI1022
I2
sI1023
I2
stp411
Rp412
sI137
g1
((dp413
I1024
I1
sI1025
I1
sI1026
I2
sI1027
I2
sI726
I2
sI656
I1
sI658
I1
sI1047
I1
sI1048
I1
sI1049
I1
sI1050
I1
sI1051
I1
sI668
I1
sI925
I2
sI670
I1
sI672
I1
sI676
I2
sI548
I1
sI293
I1
sI474
I1
sI423
I2
sI1052
I1
sI939
I1
sI692
I1
sI700
I2
sI573
I1
sI706
I1
sI708
I1
sI583
I1
sI969
I2
sI974
I1
sI976
I2
sI979
I1
sI724
I2
sI981
I2
sI982
I4
sI729
I1
sI730
I3
sI604
I2
sI933
I1
sI912
I1
sI610
I2
sI874
I1
sI494
I2
sI503
I1
sI634
I2
sI1020
I1
sI1021
I1
stp414
Rp415
sI138
g1
((dp416
I643
I1
sI1028
I1
sI1029
I1
sI1032
I1
sI1033
I1
sI714
I1
sI983
I2
sI986
I1
sI731
I1
sI732
I1
sI1053
I2
sI1054
I2
sI709
I2
sI992
I1
sI993
I1
sI987
I1
sI294
I1
sI679
I3
sI424
I2
sI688
I1
sI552
I1
sI478
I1
sI607
I1
sI703
I1
stp417
Rp418
sI139
g1
((dp419
I650
I1
sI1037
I1
sI1038
I1
sI661
I1
sI1047
I1
sI1048
I1
sI1055
I2
sI1056
I2
sI1057
I1
sI1058
I1
sI1061
I1
sI1062
I1
sI295
I1
sI680
I3
sI425
I2
sI940
I1
sI733
I3
sI691
I1
sI695
I1
sI697
I1
sI1034
I1
sI704
I1
sI580
I1
sI710
I2
sI717
I2
sI725
I1
sI984
I1
sI477
I1
sI734
I1
sI608
I1
sI994
I2
sI996
I1
sI1003
I1
sI1004
I1
sI498
I1
sI553
I1
stp420
Rp421
sI140
g1
((dp422
I554
I1
sI651
I1
sI1036
I1
sI1039
I1
sI1040
I1
sI657
I1
sI1043
I1
sI1044
I1
sI478
I1
sI1049
I1
sI1050
I1
sI667
I1
sI1057
I1
sI1058
I1
sI1059
I2
sI1060
I2
sI1063
I2
sI296
I1
sI681
I3
sI426
I2
sI555
I1
sI692
I1
sI693
I2
sI479
I2
sI703
I1
sI705
I1
sI1035
I2
sI582
I1
sI711
I2
sI715
I1
sI718
I2
sI725
I1
sI726
I1
sI986
I1
sI731
I4
sI734
I2
sI735
I2
sI609
I1
sI995
I2
sI997
I1
sI999
I2
sI1000
I1
sI1005
I1
sI1006
I1
sI1064
I2
sI502
I2
sI1065
I1
sI1066
I1
stp423
Rp424
sI141
g1
((dp425
I427
I2
sI556
I1
sI1041
I1
sI658
I1
sI1045
I1
sI1046
I1
sI1051
I1
sI1052
I1
sI673
I1
sI1061
I1
sI1062
I1
sI297
I1
sI682
I3
sI1067
I2
sI1068
I2
sI584
I1
sI694
I2
sI480
I2
sI706
I1
sI709
I1
sI712
I2
sI720
I1
sI726
I1
sI732
I4
sI735
I1
sI736
I3
sI610
I1
sI998
I2
sI1001
I2
sI1002
I1
sI1042
I1
sI1007
I1
sI1008
I1
sI1065
I1
sI504
I1
sI1066
I1
stp426
Rp427
sI142
g1
((dp428
I737
I5
sI738
I1
sI585
I1
sI298
I1
sI428
I2
sI1069
I3
sI1070
I1
sI495
I1
sI1072
I1
sI1077
I1
sI662
I1
sI727
I1
sI698
I1
sI719
I2
sI1086
I1
stp429
Rp430
sI143
g1
((dp431
I704
I1
sI1041
I1
sI942
I1
sI663
I1
sI793
I2
sI668
I1
sI299
I1
sI429
I2
sI1070
I2
sI1071
I2
sI1073
I2
sI1074
I1
sI1078
I1
sI1079
I1
sI699
I1
sI1087
I2
sI1088
I1
sI1089
I2
sI1090
I1
sI585
I1
sI586
I1
sI587
I1
sI720
I2
sI727
I1
sI728
I1
sI733
I2
sI738
I4
sI739
I2
sI496
I1
sI499
I1
sI884
I2
sI1020
I1
stp432
Rp433
sI144
g1
((dp434
I430
I2
sI664
I1
sI669
I1
sI674
I1
sI710
I1
sI300
I1
sI942
I1
sI1072
I2
sI1074
I1
sI1075
I2
sI1076
I2
sI1078
I1
sI1080
I2
sI1081
I2
sI698
I1
sI1083
I1
sI700
I1
sI705
I1
sI1091
I2
sI1092
I2
sI1093
I1
sI1094
I1
sI1095
I1
sI1096
I1
sI588
I1
sI589
I1
sI721
I2
sI728
I1
sI729
I1
sI1082
I1
sI734
I2
sI739
I3
sI740
I3
sI500
I1
sI503
I1
sI1020
I1
stp435
Rp436
sI145
g1
((dp437
I1041
I1
sI670
I1
sI675
I1
sI301
I1
sI431
I2
sI1077
I2
sI1079
I1
sI1082
I1
sI1083
I1
sI1084
I2
sI1085
I2
sI1087
I2
sI1088
I1
sI706
I1
sI1093
I1
sI1094
I1
sI711
I1
sI1097
I2
sI1098
I2
sI1099
I1
sI1100
I1
sI590
I1
sI591
I1
sI722
I2
sI727
I1
sI729
I1
sI730
I1
sI735
I2
sI740
I2
sI741
I4
sI504
I1
sI505
I2
stp438
Rp439
sI146
g1
((dp440
I1089
I2
sI1090
I1
sI1095
I1
sI712
I1
sI1099
I1
sI1100
I1
sI1101
I2
sI1102
I2
sI592
I1
sI730
I1
sI736
I2
sI738
I1
sI676
I1
sI741
I1
sI742
I5
sI302
I1
sI432
I2
sI1096
I1
sI506
I2
sI1086
I2
stp441
Rp442
sI147
g1
((dp443
I899
I1
sI773
I1
sI743
I5
sI777
I1
sI775
I1
sI749
I1
sI1103
I3
sI1104
I2
sI1105
I1
sI595
I1
sI903
I1
sI303
I1
sI901
I1
sI751
I2
sI507
I1
stp444
Rp445
sI148
g1
((dp446
I304
I1
sI900
I1
sI774
I1
sI902
I1
sI776
I1
sI744
I5
sI778
I1
sI750
I1
sI752
I2
sI1105
I2
sI1106
I3
sI1104
I1
sI598
I1
sI904
I1
sI508
I1
stp447
Rp448
sI149
g1
((dp449
I515
I1
sI783
I2
sI785
I1
sI534
I1
sI793
I3
sI795
I1
sI924
I1
sI797
I1
sI1055
I2
sI934
I1
sI561
I1
sI940
I1
sI942
I1
sI944
I1
sI817
I1
sI946
I1
sI1075
I2
sI831
I1
sI839
I1
sI970
I1
sI305
I1
sI867
I1
sI1108
I1
sI853
I2
sI860
I1
sI994
I2
sI995
I1
sI996
I1
sI997
I1
sI745
I3
sI875
I1
sI754
I2
sI1107
I1
sI761
I1
sI509
I1
sI767
I1
stp450
Rp451
sI150
g1
((dp452
I768
I1
sI516
I1
sI854
I2
sI786
I1
sI794
I3
sI924
I1
sI538
I1
sI798
I1
sI796
I1
sI941
I1
sI943
I1
sI945
I1
sI306
I1
sI947
I1
sI832
I1
sI842
I1
sI1107
I1
sI1108
I1
sI1109
I2
sI1110
I2
sI983
I4
sI985
I1
sI987
I1
sI861
I2
sI995
I1
sI868
I1
sI614
I1
sI998
I2
sI1000
I1
sI746
I3
sI876
I1
sI755
I4
sI762
I1
sI818
I2
sI1002
I1
sI510
I1
stp453
Rp454
sI151
g1
((dp455
I769
I1
sI1003
I2
sI747
I3
sI907
I1
sI877
I1
sI984
I1
sI855
I2
sI787
I1
sI535
I1
sI1112
I1
sI1113
I1
sI1111
I1
sI795
I2
sI988
I4
sI990
I1
sI799
I1
sI862
I2
sI869
I1
sI999
I1
sI843
I2
sI619
I1
sI1005
I1
sI307
I1
sI948
I1
sI821
I1
sI950
I1
sI952
I1
sI756
I4
sI761
I1
sI511
I1
stp456
Rp457
sI152
g1
((dp458
I512
I1
sI992
I2
sI770
I1
sI968
I1
sI845
I1
sI788
I1
sI878
I1
sI856
I2
sI1114
I1
sI539
I1
sI796
I2
sI986
I1
sI990
I1
sI863
I1
sI800
I1
sI1115
I1
sI870
I1
sI1116
I1
sI748
I3
sI1005
I1
sI622
I1
sI1007
I2
sI1001
I1
sI308
I1
sI949
I1
sI822
I1
sI951
I1
sI953
I1
sI762
I1
sI757
I2
stp459
Rp460
sI153
g1
((dp461
I513
I1
sI771
I1
sI517
I1
sI769
I1
sI909
I1
sI913
I2
sI915
I2
sI789
I1
sI857
I2
sI536
I1
sI797
I2
sI799
I2
sI801
I2
sI934
I1
sI775
I2
sI989
I4
sI309
I1
sI823
I2
sI954
I1
sI1119
I1
sI956
I1
sI958
I1
sI960
I1
sI833
I2
sI863
I1
sI844
I2
sI1111
I2
sI600
I1
sI985
I1
sI1114
I2
sI1115
I1
sI1117
I2
sI1118
I2
sI991
I1
sI1120
I1
sI996
I1
sI871
I1
sI1000
I1
sI1004
I2
sI749
I3
sI1006
I1
sI879
I1
sI626
I1
sI757
I2
sI1112
I1
sI763
I2
sI767
I1
sI917
I1
stp462
Rp463
sI154
g1
((dp464
I768
I1
sI514
I1
sI772
I1
sI790
I1
sI518
I1
sI776
I2
sI770
I1
sI910
I1
sI914
I2
sI916
I2
sI750
I3
sI918
I1
sI540
I1
sI798
I2
sI800
I2
sI880
I1
sI802
I2
sI1115
I1
sI310
I1
sI824
I2
sI955
I1
sI957
I1
sI959
I1
sI961
I1
sI834
I2
sI993
I2
sI970
I1
sI603
I1
sI846
I1
sI1112
I1
sI1113
I2
sI858
I2
sI987
I1
sI1116
I2
sI991
I1
sI864
I2
sI1121
I2
sI1122
I2
sI997
I1
sI872
I1
sI1120
I1
sI1002
I1
sI1006
I1
sI1008
I2
sI1119
I1
sI758
I4
sI632
I1
sI764
I2
stp465
Rp466
sI155
g1
((dp467
I311
I1
sI962
I1
sI771
I1
sI964
I1
sI966
I1
sI519
I1
sI777
I2
sI791
I1
sI857
I1
sI911
I1
sI1123
I3
sI1107
I1
sI661
I1
sI919
I2
sI917
I1
sI601
I1
sI1117
I1
sI1055
I1
sI801
I1
sI803
I3
sI1124
I2
sI1121
I1
sI751
I3
sI905
I4
sI1119
I1
sI1125
I1
sI1109
I1
stp468
Rp469
sI156
g1
((dp470
I963
I1
sI772
I1
sI965
I1
sI967
I1
sI520
I1
sI778
I2
sI1122
I1
sI912
I1
sI792
I1
sI1108
I1
sI918
I1
sI664
I1
sI1124
I1
sI858
I1
sI604
I1
sI1118
I1
sI1120
I1
sI802
I1
sI804
I3
sI1125
I2
sI1126
I3
sI752
I3
sI920
I2
sI1075
I1
sI312
I1
sI1110
I1
sI906
I4
stp471
Rp472
sI157
g1
((dp473
I865
I1
sI836
I1
sI805
I1
sI1127
I1
sI521
I1
sI971
I1
sI759
I2
sI881
I2
sI819
I1
sI887
I1
sI1016
I1
sI313
I1
sI1018
I1
stp474
Rp475
sI158
g1
((dp476
I1024
I1
sI522
I1
sI524
I1
sI1037
I1
sI787
I2
sI930
I1
sI806
I1
sI888
I1
sI564
I1
sI821
I1
sI1080
I1
sI825
I3
sI314
I1
sI948
I1
sI837
I2
sI841
I1
sI972
I1
sI847
I2
sI760
I2
sI761
I2
sI984
I2
sI865
I1
sI866
I1
sI867
I1
sI869
I1
sI1128
I1
sI1129
I1
sI1130
I1
sI623
I1
sI1009
I4
sI882
I2
sI1011
I1
sI884
I2
sI1015
I2
sI1016
I2
sI1017
I1
sI890
I1
sI1019
I1
sI1020
I2
sI1022
I2
stp477
Rp478
sI159
g1
((dp479
I1024
I1
sI1025
I1
sI1026
I2
sI523
I1
sI525
I1
sI883
I2
sI930
I1
sI807
I1
sI615
I1
sI627
I1
sI823
I1
sI826
I2
sI315
I1
sI885
I2
sI842
I1
sI971
I2
sI848
I2
sI849
I1
sI889
I1
sI985
I2
sI762
I2
sI763
I2
sI868
I1
sI870
I1
sI871
I1
sI1131
I2
sI1132
I1
sI1133
I1
sI1134
I1
sI1135
I1
sI1136
I1
sI1010
I4
sI1011
I1
sI1012
I1
sI1013
I2
sI1017
I1
sI1018
I1
sI891
I1
sI1021
I2
sI1023
I2
stp480
Rp481
sI160
g1
((dp482
I1025
I1
sI1027
I2
sI886
I2
sI972
I1
sI526
I1
sI850
I1
sI633
I1
sI316
I1
sI827
I1
sI1137
I1
sI808
I1
sI764
I2
sI872
I1
sI1138
I1
sI1139
I1
sI1140
I1
sI1014
I2
sI1012
I1
sI1019
I1
sI892
I1
stp483
Rp484
sI161
g1
((dp485
I843
I1
sI839
I1
sI1132
I1
sI1035
I1
sI909
I1
sI1039
I1
sI887
I1
sI1037
I1
sI527
I1
sI541
I1
sI926
I1
sI893
I2
sI805
I3
sI809
I2
sI973
I1
sI1131
I1
sI940
I2
sI765
I2
sI820
I1
sI1141
I1
sI873
I1
sI948
I2
sI954
I1
sI317
I1
stp486
Rp487
sI162
g1
((dp488
I1028
I2
sI1034
I2
sI1035
I2
sI1036
I1
sI1037
I1
sI1038
I1
sI1039
I1
sI528
I1
sI1041
I2
sI1043
I1
sI789
I2
sI542
I1
sI545
I1
sI806
I2
sI810
I2
sI822
I1
sI1080
I2
sI570
I1
sI318
I1
sI566
I1
sI840
I2
sI842
I1
sI845
I1
sI849
I1
sI860
I1
sI1082
I2
sI1040
I1
sI869
I1
sI1128
I2
sI1129
I1
sI874
I1
sI875
I1
sI1133
I1
sI1134
I1
sI873
I1
sI1142
I2
sI1143
I2
sI1144
I1
sI1145
I1
sI894
I2
sI1045
I1
sI645
I1
sI910
I1
sI913
I2
sI927
I1
sI928
I1
sI932
I1
sI936
I1
sI941
I2
sI942
I2
sI949
I2
sI950
I1
sI954
I1
sI955
I1
sI956
I1
sI1057
I2
sI887
I2
sI974
I1
sI888
I1
sI986
I2
sI1011
I1
sI1018
I2
sI766
I2
sI767
I2
stp489
Rp490
sI163
g1
((dp491
I768
I2
sI1029
I2
sI649
I1
sI1036
I1
sI529
I1
sI914
I2
sI1044
I1
sI1046
I1
sI929
I1
sI546
I1
sI932
I1
sI807
I1
sI811
I2
sI943
I2
sI951
I1
sI824
I1
sI957
I1
sI319
I1
sI876
I1
sI850
I1
sI889
I1
sI987
I2
sI861
I2
sI870
I1
sI1127
I6
sI616
I1
sI1129
I1
sI1130
I2
sI1132
I1
sI1042
I2
sI1135
I1
sI1136
I1
sI1018
I1
sI1012
I1
sI1141
I2
sI1144
I1
sI1145
I1
sI1146
I2
sI1147
I2
sI895
I2
stp492
Rp493
sI164
g1
((dp494
I896
I2
sI769
I2
sI1154
I1
sI646
I1
sI1153
I1
sI909
I1
sI877
I1
sI530
I1
sI915
I2
sI1047
I2
sI1049
I1
sI543
I1
sI930
I1
sI1030
I2
sI806
I1
sI812
I2
sI944
I2
sI1011
I1
sI948
I1
sI862
I2
sI950
I1
sI826
I1
sI958
I1
sI320
I1
sI845
I1
sI1037
I1
sI1111
I2
sI990
I2
sI867
I1
sI1128
I1
sI1131
I4
sI1133
I1
sI624
I1
sI1137
I3
sI1138
I1
sI1043
I1
sI890
I1
sI1148
I2
sI1149
I2
sI1150
I1
stp495
Rp496
sI165
g1
((dp497
I770
I2
sI771
I2
sI1028
I2
sI878
I1
sI1030
I2
sI1031
I2
sI1032
I2
sI1037
I1
sI1038
I1
sI1039
I1
sI531
I1
sI1044
I1
sI1045
I1
sI1048
I2
sI1049
I1
sI1050
I1
sI1051
I2
sI544
I1
sI547
I1
sI807
I2
sI813
I2
sI827
I2
sI321
I1
sI846
I1
sI851
I2
sI863
I1
sI868
I1
sI1129
I1
sI875
I1
sI1132
I2
sI1133
I1
sI1134
I1
sI1135
I2
sI1138
I2
sI1139
I2
sI628
I1
sI891
I1
sI1149
I2
sI1150
I1
sI1151
I2
sI1152
I2
sI897
I2
sI1155
I2
sI1156
I2
sI1157
I1
sI1158
I1
sI650
I1
sI877
I1
sI916
I2
sI917
I1
sI666
I1
sI879
I1
sI931
I1
sI932
I1
sI936
I1
sI945
I2
sI946
I2
sI951
I1
sI952
I2
sI959
I1
sI960
I1
sI973
I2
sI991
I2
sI1012
I1
stp498
Rp499
sI166
g1
((dp500
I1153
I1
sI898
I2
sI772
I2
sI1029
I2
sI1158
I1
sI1031
I2
sI1160
I2
sI1033
I2
sI1154
I1
sI1040
I1
sI532
I1
sI878
I1
sI918
I1
sI1050
I1
sI1052
I2
sI669
I1
sI1157
I1
sI880
I1
sI548
I1
sI933
I1
sI808
I3
sI1159
I2
sI814
I2
sI947
I2
sI1080
I1
sI953
I2
sI1046
I1
sI828
I3
sI961
I1
sI322
I1
sI974
I1
sI852
I2
sI1130
I1
sI876
I1
sI1134
I1
sI1136
I2
sI1139
I1
sI1140
I3
sI634
I1
sI892
I1
stp501
Rp502
sI167
g1
((dp503
I962
I2
sI323
I1
sI773
I2
sI1161
I1
sI844
I1
sI911
I1
sI899
I3
sI1111
I2
sI975
I1
sI988
I1
sI1117
I1
sI1055
I2
sI1057
I1
sI1059
I1
sI549
I1
sI934
I1
sI809
I2
sI605
I1
sI954
I1
sI1149
I1
sI1151
I1
stp504
Rp505
sI168
g1
((dp506
I1152
I1
sI900
I3
sI774
I2
sI1162
I1
sI1163
I1
sI1164
I1
sI1039
I1
sI912
I1
sI791
I2
sI671
I1
sI1056
I2
sI1058
I1
sI1059
I2
sI1060
I1
sI550
I1
sI935
I1
sI810
I1
sI1075
I2
sI1082
I1
sI955
I1
sI572
I1
sI962
I1
sI963
I2
sI324
I1
sI970
I1
sI938
I1
sI846
I1
sI976
I1
sI1112
I1
sI1118
I1
sI608
I1
sI1084
I3
sI1003
I1
sI1148
I2
sI893
I2
sI1150
I1
stp507
Rp508
sI169
g1
((dp509
I1153
I2
sI1155
I2
sI901
I3
sI647
I1
sI1032
I1
sI1162
I2
sI1163
I1
sI1165
I4
sI1166
I2
sI911
I1
sI1168
I1
sI917
I1
sI1157
I1
sI1057
I1
sI1061
I2
sI551
I1
sI936
I1
sI553
I1
sI810
I1
sI775
I2
sI812
I2
sI990
I1
sI954
I1
sI863
I1
sI956
I1
sI701
I1
sI958
I1
sI964
I2
sI325
I1
sI1107
I2
sI1112
I1
sI985
I1
sI1114
I2
sI1167
I1
sI1117
I2
sI606
I1
sI1119
I1
sI992
I2
sI996
I1
sI871
I1
sI1063
I2
sI1132
I2
sI1013
I2
sI1142
I2
sI1065
I1
sI1144
I1
sI1149
I2
sI1151
I1
stp510
Rp511
sI170
g1
((dp512
I1154
I2
sI1156
I2
sI902
I3
sI776
I2
sI1033
I1
sI651
I1
sI1164
I2
sI1039
I1
sI1168
I1
sI1169
I2
sI1170
I2
sI918
I1
sI1058
I1
sI987
I1
sI1158
I1
sI1062
I2
sI552
I1
sI937
I1
sI1066
I1
sI811
I2
sI813
I1
sI1161
I4
sI957
I1
sI959
I1
sI864
I2
sI1163
I1
sI965
I2
sI326
I1
sI609
I1
sI716
I1
sI1108
I2
sI1113
I2
sI1115
I1
sI1120
I1
sI993
I2
sI997
I1
sI872
I1
sI1167
I1
sI1005
I1
sI1064
I2
sI938
I1
sI1141
I4
sI1014
I2
sI1143
I2
sI1145
I1
sI554
I1
sI1150
I1
sI1151
I1
stp513
Rp514
sI171
g1
((dp515
I555
I1
sI1157
I1
sI903
I3
sI1032
I1
sI777
I2
sI1165
I2
sI1167
I1
sI1169
I1
sI1171
I3
sI1172
I2
sI1173
I1
sI919
I2
sI667
I1
sI1053
I4
sI1057
I1
sI1059
I1
sI1065
I1
sI938
I1
sI1067
I2
sI813
I1
sI960
I1
sI966
I2
sI327
I1
sI717
I1
sI975
I2
sI1109
I2
sI1115
I1
sI607
I1
sI992
I1
sI1121
I1
sI1000
I1
sI879
I1
sI1144
I1
sI1146
I2
sI1159
I2
sI1151
I1
stp516
Rp517
sI172
g1
((dp518
I1152
I1
sI1158
I1
sI904
I3
sI1033
I1
sI778
I2
sI1166
I1
sI1168
I1
sI1170
I1
sI1172
I1
sI1173
I2
sI1174
I3
sI920
I2
sI1054
I4
sI1060
I1
sI1066
I1
sI939
I1
sI556
I1
sI814
I2
sI1160
I2
sI670
I1
sI1082
I1
sI961
I1
sI967
I2
sI328
I1
sI610
I1
sI1068
I2
sI976
I1
sI721
I1
sI1110
I2
sI1116
I2
sI1122
I1
sI1002
I1
sI1007
I1
sI880
I1
sI1145
I1
sI1147
I2
stp519
Rp520
sI173
g1
((dp521
I329
I1
sI780
I2
sI557
I1
sI1070
I1
sI1069
I4
sI977
I1
sI1175
I1
sI921
I1
sI1071
I1
sI829
I1
stp522
Rp523
sI174
g1
((dp524
I330
I1
sI782
I2
sI847
I1
sI978
I1
sI558
I1
sI1177
I1
sI1176
I1
sI921
I1
sI1178
I1
sI923
I1
sI927
I1
sI560
I1
sI994
I2
sI1070
I3
sI1072
I2
sI1073
I2
sI1074
I1
sI1015
I2
sI1034
I1
sI830
I1
sI831
I1
stp525
Rp526
sI175
g1
((dp527
I1034
I1
sI1036
I1
sI784
I2
sI786
I2
sI1176
I2
sI1177
I1
sI923
I1
sI1180
I1
sI925
I1
sI1182
I1
sI1056
I2
sI929
I1
sI1179
I2
sI935
I1
sI941
I1
sI1071
I3
sI1072
I2
sI1074
I1
sI563
I1
sI1076
I2
sI1077
I3
sI1078
I1
sI1079
I1
sI569
I1
sI832
I1
sI331
I1
sI977
I2
sI1181
I2
sI979
I1
sI853
I1
sI995
I2
sI849
I1
sI882
I1
sI562
I1
sI1017
I1
sI635
I1
stp528
Rp529
sI176
g1
((dp530
I641
I1
sI1142
I1
sI833
I1
sI332
I1
sI1038
I1
sI848
I1
sI867
I1
sI788
I2
sI1017
I1
sI996
I2
sI1183
I3
sI1184
I1
sI1185
I1
sI931
I1
sI1188
I1
sI1009
I1
sI1128
I2
sI1073
I2
sI565
I1
sI1078
I2
sI1081
I1
sI927
I1
sI980
I1
sI949
I1
stp531
Rp532
sI177
g1
((dp533
I571
I1
sI1036
I1
sI1038
I1
sI655
I1
sI1040
I1
sI790
I2
sI1184
I2
sI929
I1
sI1058
I2
sI1187
I2
sI933
I1
sI1190
I1
sI1191
I1
sI937
I1
sI1074
I2
sI567
I1
sI1081
I2
sI1083
I2
sI834
I1
sI1185
I1
sI1079
I2
sI1186
I2
sI333
I1
sI978
I2
sI851
I1
sI981
I1
sI1189
I1
sI955
I1
sI997
I2
sI1129
I1
sI875
I1
sI850
I1
sI1143
I1
sI888
I1
sI1019
I2
sI1022
I1
stp534
Rp535
sI178
g1
((dp536
I963
I1
sI334
I1
sI1040
I1
sI1091
I1
sI852
I1
sI982
I1
sI792
I2
sI674
I1
sI1060
I2
sI1192
I1
sI1193
I1
sI1194
I1
sI939
I1
sI1196
I1
sI573
I1
sI979
I1
sI1076
I2
sI1195
I1
sI1083
I1
sI1085
I3
sI894
I1
stp537
Rp538
sI179
g1
((dp539
I1088
I1
sI1090
I1
sI574
I1
sI586
I1
sI335
I1
sI1042
I1
sI854
I1
sI1175
I6
sI1177
I1
sI1178
I2
sI1071
I1
sI1180
I1
sI925
I1
sI1182
I1
sI998
I2
sI794
I2
sI1197
I2
sI1198
I2
sI943
I1
sI1077
I1
sI636
I1
sI1021
I1
sI1086
I4
sI885
I1
stp540
Rp541
sI180
g1
((dp542
I1091
I4
sI1093
I1
sI639
I1
sI855
I1
sI908
I1
sI866
I1
sI336
I1
sI1043
I1
sI1047
I1
sI1176
I4
sI795
I2
sI1184
I2
sI1186
I1
sI1179
I1
sI869
I1
sI999
I2
sI1192
I1
sI1020
I1
sI1003
I2
sI882
I1
sI1199
I1
sI944
I1
sI1128
I1
sI579
I1
sI950
I1
sI1015
I1
sI575
I1
sI1148
I1
sI1022
I2
sI1087
I3
stp543
Rp544
sI181
g1
((dp545
I576
I1
sI642
I1
sI883
I2
sI1034
I1
sI580
I1
sI1044
I1
sI1048
I1
sI1177
I2
sI1179
I2
sI796
I2
sI1185
I1
sI931
I1
sI1189
I2
sI1190
I1
sI935
I1
sI1192
I1
sI1180
I2
sI941
I1
sI944
I1
sI1201
I1
sI1202
I1
sI1203
I1
sI1078
I1
sI951
I1
sI696
I1
sI1162
I2
sI1088
I3
sI1092
I4
sI1094
I1
sI1200
I2
sI337
I1
sI1107
I2
sI857
I1
sI945
I1
sI868
I1
sI871
I1
sI1000
I2
sI1129
I1
sI1004
I2
sI1133
I1
sI1021
I1
sI1011
I1
sI1142
I2
sI1193
I2
sI1144
I1
sI1148
I2
sI637
I1
sI1023
I2
stp546
Rp547
sI182
g1
((dp548
I1024
I1
sI1089
I3
sI1093
I1
sI577
I1
sI969
I1
sI587
I1
sI652
I1
sI1041
I1
sI338
I1
sI1045
I1
sI1047
I1
sI856
I1
sI1177
I2
sI797
I2
sI1183
I3
sI1185
I1
sI1187
I1
sI1061
I2
sI1073
I1
sI1001
I2
sI874
I1
sI1095
I2
sI1181
I1
sI1200
I1
sI1201
I1
sI946
I1
sI1204
I1
sI885
I1
sI890
I2
sI956
I1
stp549
Rp550
sI183
g1
((dp551
I1024
I1
sI1025
I1
sI578
I1
sI656
I1
sI1042
I1
sI1046
I1
sI1048
I1
sI1178
I4
sI943
I1
sI1181
I2
sI798
I2
sI1185
I1
sI1188
I4
sI933
I1
sI1062
I2
sI1191
I2
sI1192
I1
sI1074
I1
sI1199
I2
sI1201
I1
sI1202
I1
sI947
I1
sI1204
I2
sI1182
I2
sI1206
I2
sI1079
I1
sI699
I1
sI957
I1
sI1205
I2
sI1090
I3
sI1094
I1
sI1096
I2
sI1203
I1
sI588
I1
sI339
I1
sI1108
I2
sI858
I1
sI1190
I1
sI1002
I2
sI876
I1
sI1134
I1
sI979
I1
sI886
I2
sI1145
I1
sI891
I1
sI1130
I2
sI638
I1
sI946
I1
stp552
Rp553
sI184
g1
((dp554
I640
I1
sI1024
I1
sI1153
I1
sI653
I1
sI910
I1
sI1005
I2
sI913
I1
sI1043
I1
sI1080
I1
sI1049
I1
sI1179
I2
sI799
I2
sI1184
I2
sI1186
I1
sI1189
I2
sI1063
I2
sI1192
I2
sI1194
I2
sI689
I1
sI950
I1
sI1207
I4
sI952
I1
sI1210
I2
sI1211
I1
sI958
I1
sI581
I1
sI1097
I2
sI972
I1
sI1208
I1
sI340
I1
sI1112
I2
sI870
I1
sI1129
I1
sI877
I1
sI1133
I1
sI1137
I3
sI1093
I2
sI888
I1
sI1017
I1
sI1150
I1
stp555
Rp556
sI185
g1
((dp557
I1025
I1
sI643
I1
sI1028
I1
sI1163
I2
sI1036
I1
sI657
I1
sI1043
I1
sI1044
I1
sI1050
I1
sI1181
I2
sI800
I2
sI1186
I2
sI1187
I1
sI582
I1
sI1190
I1
sI1064
I2
sI937
I1
sI1194
I2
sI1195
I2
sI1207
I2
sI1208
I2
sI1081
I1
sI1212
I1
sI1213
I1
sI1214
I1
sI959
I1
sI1094
I2
sI1098
I2
sI723
I1
sI980
I2
sI341
I1
sI953
I1
sI1209
I3
sI872
I1
sI1006
I2
sI879
I1
sI1143
I2
sI1144
I1
sI889
I2
sI1150
I1
stp558
Rp559
sI186
g1
((dp560
I896
I2
sI1153
I2
sI1026
I2
sI878
I1
sI704
I1
sI654
I1
sI912
I1
sI1045
I1
sI1047
I1
sI1049
I1
sI1051
I1
sI1180
I2
sI672
I1
sI1185
I1
sI1190
I1
sI1192
I1
sI1065
I2
sI1152
I1
sI1195
I1
sI1216
I1
sI1200
I2
sI1202
I1
sI1078
I1
sI1082
I1
sI956
I1
sI1213
I1
sI1215
I4
sI960
I1
sI1217
I1
sI964
I1
sI801
I2
sI1097
I2
sI1099
I3
sI589
I1
sI974
I1
sI1166
I2
sI342
I1
sI1210
I2
sI1118
I2
sI1212
I2
sI583
I1
sI1134
I1
sI1007
I2
sI1193
I2
sI1095
I2
sI891
I1
sI1021
I1
sI894
I1
stp561
Rp562
sI187
g1
((dp563
I1152
I1
sI897
I1
sI1027
I2
sI961
I1
sI1164
I2
sI1042
I1
sI1045
I1
sI1046
I1
sI1050
I1
sI1052
I1
sI1182
I2
sI965
I1
sI880
I1
sI802
I2
sI675
I1
sI1191
I2
sI1066
I2
sI939
I1
sI1196
I4
sI1199
I2
sI584
I1
sI1203
I1
sI1195
I1
sI1079
I1
sI1210
I2
sI1083
I1
sI1213
I1
sI1214
I2
sI1216
I1
sI1217
I1
sI1218
I2
sI1219
I2
sI1093
I1
sI1096
I2
sI1098
I2
sI1100
I3
sI590
I1
sI1187
I2
sI981
I2
sI343
I1
sI728
I1
sI1211
I2
sI1201
I1
sI658
I1
sI1008
I2
sI1145
I1
sI892
I2
sI895
I2
stp564
Rp565
sI188
g1
((dp566
I1216
I1
sI897
I1
sI1218
I1
sI1220
I3
sI1221
I2
sI966
I1
sI1099
I1
sI1101
I4
sI1166
I1
sI591
I1
sI976
I1
sI344
I1
sI1051
I1
sI733
I1
sI1222
I1
sI673
I1
sI803
I2
sI1061
I1
sI1088
I1
sI1067
I2
sI1197
I2
sI1201
I1
sI1205
I1
sI1084
I1
stp567
Rp568
sI189
g1
((dp569
I1217
I1
sI898
I2
sI1219
I1
sI1221
I1
sI1222
I2
sI1095
I1
sI1100
I1
sI1090
I1
sI1102
I4
sI592
I1
sI982
I2
sI804
I2
sI345
I1
sI1052
I1
sI739
I1
sI676
I1
sI967
I1
sI1068
I2
sI1198
I2
sI1204
I2
sI1206
I1
sI1085
I1
sI1223
I3
sI1215
I2
stp570
Rp571
sI190
g1
((dp572
I899
I1
sI677
I1
sI1224
I1
sI1165
I1
sI1117
I1
sI1103
I4
sI1123
I2
sI1171
I1
sI346
I1
sI989
I1
stp573
Rp574
sI191
g1
((dp575
I962
I1
sI707
I1
sI900
I1
sI901
I1
sI1225
I4
sI1162
I1
sI1227
I1
sI1166
I1
sI1167
I1
sI1104
I4
sI1171
I2
sI1172
I1
sI1220
I3
sI347
I1
sI1118
I1
sI991
I1
sI1123
I2
sI1124
I2
sI678
I1
sI680
I1
sI1004
I1
sI1119
I1
sI1226
I2
sI1151
I1
stp576
Rp577
sI192
g1
((dp578
I1227
I2
sI902
I1
sI903
I1
sI1224
I6
sI1161
I2
sI1226
I2
sI1163
I1
sI1228
I4
sI1229
I2
sI718
I1
sI1168
I1
sI1169
I1
sI1171
I1
sI1173
I1
sI993
I1
sI348
I1
sI1120
I1
sI1121
I1
sI1059
I1
sI1125
I2
sI1105
I4
sI679
I1
sI681
I1
sI1006
I1
stp579
Rp580
sI193
g1
((dp581
I1220
I1
sI904
I1
sI1227
I1
sI1164
I1
sI1229
I2
sI1230
I4
sI1170
I1
sI1174
I1
sI349
I1
sI1122
I1
sI1126
I2
sI682
I1
sI1106
I4
sI1008
I1
sI722
I1
sI1084
I1
stp582
Rp583
sI194
g1
((dp584
I905
I1
sI1162
I1
sI1231
I2
sI1232
I1
sI1109
I2
sI1180
I1
sI350
I1
sI1056
I1
sI683
I1
sI1197
I3
sI1135
I1
sI945
I1
sI1202
I1
sI1205
I1
sI1225
I3
sI697
I1
sI1146
I1
sI1013
I1
stp585
Rp586
sI195
g1
((dp587
I1026
I1
sI906
I1
sI1231
I1
sI1232
I2
sI1233
I3
sI1110
I2
sI947
I1
sI1182
I1
sI351
I1
sI1193
I1
sI684
I1
sI1198
I3
sI1136
I1
sI1203
I1
sI1076
I1
sI1206
I1
sI1147
I1
sI700
I1
stp588
Rp589
sI196
g1
((dp590
I1154
I1
sI952
I1
sI1234
I2
sI1235
I2
sI1113
I2
sI352
I1
sI1186
I1
sI1019
I1
sI1130
I1
sI685
I1
sI1199
I2
sI1138
I1
sI690
I1
sI1208
I1
sI1211
I1
sI914
I1
stp591
Rp592
sI197
g1
((dp593
I353
I1
sI1155
I1
sI1133
I1
sI686
I1
sI1200
I2
sI1010
I1
sI915
I1
sI1236
I1
sI949
I1
sI1207
I1
sI1114
I2
sI1212
I1
sI1183
I1
stp594
Rp595
sI198
g1
((dp596
I1155
I2
sI1156
I1
sI1157
I1
sI1030
I1
sI1038
I1
sI1167
I2
sI916
I1
sI917
I1
sI1185
I1
sI1189
I2
sI687
I1
sI1201
I2
sI1202
I2
sI691
I1
sI951
I1
sI1208
I2
sI1210
I1
sI955
I1
sI1212
I2
sI1213
I1
sI958
I1
sI1216
I2
sI1237
I7
sI1238
I2
sI1239
I1
sI1115
I2
sI1119
I2
sI354
I1
sI1134
I1
sI1135
I2
sI1138
I2
sI1012
I1
sI702
I1
sI1144
I1
sI1150
I1
sI1023
I1
stp597
Rp598
sI199
g1
((dp599
I1025
I1
sI1154
I2
sI1029
I1
sI1158
I1
sI705
I1
sI1040
I1
sI918
I1
sI1049
I1
sI1157
I1
sI1187
I1
sI1188
I2
sI1190
I1
sI1194
I2
sI688
I1
sI1203
I2
sI692
I1
sI1145
I1
sI1081
I1
sI1211
I2
sI1212
I1
sI957
I1
sI1214
I1
sI1209
I3
sI960
I1
sI1217
I2
sI1204
I2
sI953
I1
sI1236
I6
sI1238
I2
sI1239
I2
sI1240
I2
sI1241
I2
sI1116
I2
sI1120
I2
sI1168
I2
sI355
I1
sI1213
I1
sI1136
I2
sI1139
I2
sI724
I1
stp600
Rp601
sI200
g1
((dp602
I1218
I2
sI1156
I2
sI1238
I2
sI1159
I1
sI1032
I1
sI1226
I3
sI1163
I1
sI1167
I1
sI1169
I2
sI1234
I5
sI1044
I1
sI725
I1
sI693
I1
sI919
I1
sI1240
I2
sI1242
I2
sI1243
I1
sI1121
I2
sI1058
I1
sI356
I1
sI1190
I1
sI1063
I1
sI1139
I1
sI1205
I2
sI1014
I1
sI1208
I1
sI1146
I2
sI703
I1
sI1213
I1
sI959
I1
stp603
Rp604
sI201
g1
((dp605
I1216
I1
sI961
I1
sI706
I1
sI1027
I1
sI1206
I2
sI1158
I1
sI1160
I1
sI1097
I1
sI729
I1
sI1170
I2
sI1219
I2
sI1211
I1
sI1046
I1
sI1239
I2
sI920
I1
sI1241
I2
sI1242
I1
sI1051
I1
sI1244
I3
sI1147
I2
sI1122
I2
sI1243
I2
sI357
I1
sI1191
I2
sI1195
I1
sI1235
I5
sI1140
I3
sI694
I1
sI1083
I1
sI1214
I2
stp606
Rp607
sI202
g1
((dp608
I1152
I1
sI1216
I1
sI963
I1
sI1092
I1
sI1221
I3
sI710
I1
sI1031
I1
sI1231
I4
sI1172
I2
sI1238
I1
sI1048
I1
sI964
I1
sI1242
I2
sI1245
I1
sI1157
I1
sI1124
I2
sI708
I1
sI358
I1
sI1193
I1
sI1202
I1
sI1215
I1
stp609
Rp610
sI203
g1
((dp611
I1158
I1
sI1159
I2
sI1033
I1
sI1164
I1
sI1168
I1
sI1172
I1
sI1173
I2
sI1050
I1
sI965
I1
sI734
I1
sI1060
I1
sI966
I1
sI1062
I1
sI1065
I1
sI1195
I1
sI1203
I1
sI1205
I1
sI1213
I1
sI1217
I1
sI1218
I1
sI709
I1
sI1094
I1
sI711
I1
sI1227
I3
sI1232
I4
sI726
I1
sI1239
I2
sI1240
I2
sI1242
I2
sI1243
I2
sI1245
I4
sI1246
I4
sI1247
I2
sI1222
I3
sI1125
I2
sI359
I1
stp612
Rp613
sI204
g1
((dp614
I1217
I1
sI1219
I1
sI1221
I1
sI1223
I3
sI1160
I2
sI1099
I1
sI712
I1
sI1233
I4
sI1174
I2
sI1241
I2
sI730
I1
sI1052
I1
sI1245
I2
sI1247
I2
sI1248
I4
sI740
I1
sI1126
I2
sI360
I1
sI1244
I2
sI967
I1
sI1196
I2
sI1096
I1
sI1206
I1
sI1085
I1
stp615
Rp616
sI205
g1
((dp617
I1249
I1
sI1064
I1
sI361
I1
sI1228
I3
sI1169
I1
sI1240
I1
sI1209
I1
sI731
I1
sI1053
I1
sI1246
I2
stp618
Rp619
sI206
g1
((dp620
I1218
I1
sI1098
I1
sI1229
I3
sI1170
I1
sI1173
I1
sI1241
I1
sI1243
I2
sI732
I1
sI1246
I1
sI1247
I2
sI1249
I6
sI1250
I3
sI362
I1
sI1067
I1
sI1054
I1
sI735
I1
sI1066
I1
sI1214
I1
stp621
Rp622
sI207
g1
((dp623
I736
I1
sI1248
I2
sI1250
I4
sI1219
I1
sI741
I1
sI1222
I1
sI1100
I1
sI363
I1
sI1068
I1
sI1101
I1
sI1230
I3
sI1251
I5
sI1174
I1
sI1244
I2
sI1247
I1
stp624
Rp625
sI208
g1
((dp626
I1248
I1
sI1251
I2
sI1252
I7
sI742
I1
sI1223
I1
sI364
I1
sI1102
I1
stp627
Rp628
sI209
g1
((dp629
tp630
Rp631
sI210
g1
((dp632
tp633
Rp634
sI211
g1
((dp635
tp636
Rp637
sI212
g1
((dp638
tp639
Rp640
sI213
g1
((dp641
tp642
Rp643
sI214
g1
((dp644
tp645
Rp646
sI215
g1
((dp647
tp648
Rp649
sI216
g1
((dp650
tp651
Rp652
sI217
g1
((dp653
tp654
Rp655
sI218
g1
((dp656
tp657
Rp658
sI219
g1
((dp659
tp660
Rp661
sI220
g1
((dp662
tp663
Rp664
sI221
g1
((dp665
tp666
Rp667
sI222
g1
((dp668
tp669
Rp670
sI223
g1
((dp671
tp672
Rp673
sI224
g1
((dp674
tp675
Rp676
sI225
g1
((dp677
tp678
Rp679
sI226
g1
((dp680
tp681
Rp682
sI227
g1
((dp683
tp684
Rp685
sI228
g1
((dp686
tp687
Rp688
sI229
g1
((dp689
tp690
Rp691
sI230
g1
((dp692
tp693
Rp694
sI231
g1
((dp695
tp696
Rp697
sI232
g1
((dp698
tp699
Rp700
sI233
g1
((dp701
tp702
Rp703
sI234
g1
((dp704
tp705
Rp706
sI235
g1
((dp707
tp708
Rp709
sI236
g1
((dp710
tp711
Rp712
sI237
g1
((dp713
tp714
Rp715
sI238
g1
((dp716
tp717
Rp718
sI239
g1
((dp719
tp720
Rp721
sI240
g1
((dp722
tp723
Rp724
sI241
g1
((dp725
tp726
Rp727
sI242
g1
((dp728
tp729
Rp730
sI243
g1
((dp731
tp732
Rp733
sI244
g1
((dp734
tp735
Rp736
sI245
g1
((dp737
tp738
Rp739
sI246
g1
((dp740
tp741
Rp742
sI247
g1
((dp743
tp744
Rp745
sI248
g1
((dp746
tp747
Rp748
sI249
g1
((dp749
tp750
Rp751
sI250
g1
((dp752
tp753
Rp754
sI251
g1
((dp755
tp756
Rp757
sI252
g1
((dp758
tp759
Rp760
sI253
g1
((dp761
tp762
Rp763
sI254
g1
((dp764
tp765
Rp766
sI255
g1
((dp767
tp768
Rp769
sI256
g1
((dp770
tp771
Rp772
sI257
g1
((dp773
tp774
Rp775
sI258
g1
((dp776
tp777
Rp778
sI259
g1
((dp779
tp780
Rp781
sI260
g1
((dp782
tp783
Rp784
sI261
g1
((dp785
tp786
Rp787
sI262
g1
((dp788
tp789
Rp790
sI263
g1
((dp791
tp792
Rp793
sI264
g1
((dp794
tp795
Rp796
sI265
g1
((dp797
tp798
Rp799
sI266
g1
((dp800
tp801
Rp802
sI267
g1
((dp803
tp804
Rp805
sI268
g1
((dp806
tp807
Rp808
sI269
g1
((dp809
tp810
Rp811
sI270
g1
((dp812
tp813
Rp814
sI271
g1
((dp815
tp816
Rp817
sI272
g1
((dp818
tp819
Rp820
sI273
g1
((dp821
tp822
Rp823
sI274
g1
((dp824
tp825
Rp826
sI275
g1
((dp827
tp828
Rp829
sI276
g1
((dp830
tp831
Rp832
sI277
g1
((dp833
tp834
Rp835
sI278
g1
((dp836
tp837
Rp838
sI279
g1
((dp839
tp840
Rp841
sI280
g1
((dp842
tp843
Rp844
sI281
g1
((dp845
tp846
Rp847
sI282
g1
((dp848
tp849
Rp850
sI283
g1
((dp851
tp852
Rp853
sI284
g1
((dp854
tp855
Rp856
sI285
g1
((dp857
tp858
Rp859
sI286
g1
((dp860
tp861
Rp862
sI287
g1
((dp863
tp864
Rp865
sI288
g1
((dp866
tp867
Rp868
sI289
g1
((dp869
tp870
Rp871
sI290
g1
((dp872
tp873
Rp874
sI291
g1
((dp875
tp876
Rp877
sI292
g1
((dp878
tp879
Rp880
sI293
g1
((dp881
tp882
Rp883
sI294
g1
((dp884
tp885
Rp886
sI295
g1
((dp887
tp888
Rp889
sI296
g1
((dp890
tp891
Rp892
sI297
g1
((dp893
tp894
Rp895
sI298
g1
((dp896
tp897
Rp898
sI299
g1
((dp899
tp900
Rp901
sI300
g1
((dp902
tp903
Rp904
sI301
g1
((dp905
tp906
Rp907
sI302
g1
((dp908
tp909
Rp910
sI303
g1
((dp911
tp912
Rp913
sI304
g1
((dp914
tp915
Rp916
sI305
g1
((dp917
tp918
Rp919
sI306
g1
((dp920
tp921
Rp922
sI307
g1
((dp923
tp924
Rp925
sI308
g1
((dp926
tp927
Rp928
sI309
g1
((dp929
tp930
Rp931
sI310
g1
((dp932
tp933
Rp934
sI311
g1
((dp935
tp936
Rp937
sI312
g1
((dp938
tp939
Rp940
sI313
g1
((dp941
tp942
Rp943
sI314
g1
((dp944
tp945
Rp946
sI315
g1
((dp947
tp948
Rp949
sI316
g1
((dp950
tp951
Rp952
sI317
g1
((dp953
tp954
Rp955
sI318
g1
((dp956
tp957
Rp958
sI319
g1
((dp959
tp960
Rp961
sI320
g1
((dp962
tp963
Rp964
sI321
g1
((dp965
tp966
Rp967
sI322
g1
((dp968
tp969
Rp970
sI323
g1
((dp971
tp972
Rp973
sI324
g1
((dp974
tp975
Rp976
sI325
g1
((dp977
tp978
Rp979
sI326
g1
((dp980
tp981
Rp982
sI327
g1
((dp983
tp984
Rp985
sI328
g1
((dp986
tp987
Rp988
sI329
g1
((dp989
tp990
Rp991
sI330
g1
((dp992
tp993
Rp994
sI331
g1
((dp995
tp996
Rp997
sI332
g1
((dp998
tp999
Rp1000
sI333
g1
((dp1001
tp1002
Rp1003
sI334
g1
((dp1004
tp1005
Rp1006
sI335
g1
((dp1007
tp1008
Rp1009
sI336
g1
((dp1010
tp1011
Rp1012
sI337
g1
((dp1013
tp1014
Rp1015
sI338
g1
((dp1016
tp1017
Rp1018
sI339
g1
((dp1019
tp1020
Rp1021
sI340
g1
((dp1022
tp1023
Rp1024
sI341
g1
((dp1025
tp1026
Rp1027
sI342
g1
((dp1028
tp1029
Rp1030
sI343
g1
((dp1031
tp1032
Rp1033
sI344
g1
((dp1034
tp1035
Rp1036
sI345
g1
((dp1037
tp1038
Rp1039
sI346
g1
((dp1040
tp1041
Rp1042
sI347
g1
((dp1043
tp1044
Rp1045
sI348
g1
((dp1046
tp1047
Rp1048
sI349
g1
((dp1049
tp1050
Rp1051
sI350
g1
((dp1052
tp1053
Rp1054
sI351
g1
((dp1055
tp1056
Rp1057
sI352
g1
((dp1058
tp1059
Rp1060
sI353
g1
((dp1061
tp1062
Rp1063
sI354
g1
((dp1064
tp1065
Rp1066
sI355
g1
((dp1067
tp1068
Rp1069
sI356
g1
((dp1070
tp1071
Rp1072
sI357
g1
((dp1073
tp1074
Rp1075
sI358
g1
((dp1076
tp1077
Rp1078
sI359
g1
((dp1079
tp1080
Rp1081
sI360
g1
((dp1082
tp1083
Rp1084
sI361
g1
((dp1085
tp1086
Rp1087
sI362
g1
((dp1088
tp1089
Rp1090
sI363
g1
((dp1091
tp1092
Rp1093
sI364
g1
((dp1094
tp1095
Rp1096
sI365
g1
((dp1097
tp1098
Rp1099
sI366
g1
((dp1100
tp1101
Rp1102
sI367
g1
((dp1103
tp1104
Rp1105
sI368
g1
((dp1106
tp1107
Rp1108
sI369
g1
((dp1109
tp1110
Rp1111
sI370
g1
((dp1112
tp1113
Rp1114
sI371
g1
((dp1115
tp1116
Rp1117
sI372
g1
((dp1118
tp1119
Rp1120
sI373
g1
((dp1121
tp1122
Rp1123
sI374
g1
((dp1124
tp1125
Rp1126
sI375
g1
((dp1127
tp1128
Rp1129
sI376
g1
((dp1130
tp1131
Rp1132
sI377
g1
((dp1133
tp1134
Rp1135
sI378
g1
((dp1136
tp1137
Rp1138
sI379
g1
((dp1139
tp1140
Rp1141
sI380
g1
((dp1142
tp1143
Rp1144
sI381
g1
((dp1145
tp1146
Rp1147
sI382
g1
((dp1148
tp1149
Rp1150
sI383
g1
((dp1151
tp1152
Rp1153
sI384
g1
((dp1154
tp1155
Rp1156
sI385
g1
((dp1157
tp1158
Rp1159
sI386
g1
((dp1160
tp1161
Rp1162
sI387
g1
((dp1163
tp1164
Rp1165
sI388
g1
((dp1166
tp1167
Rp1168
sI389
g1
((dp1169
tp1170
Rp1171
sI390
g1
((dp1172
tp1173
Rp1174
sI391
g1
((dp1175
tp1176
Rp1177
sI392
g1
((dp1178
tp1179
Rp1180
sI393
g1
((dp1181
tp1182
Rp1183
sI394
g1
((dp1184
tp1185
Rp1186
sI395
g1
((dp1187
tp1188
Rp1189
sI396
g1
((dp1190
tp1191
Rp1192
sI397
g1
((dp1193
tp1194
Rp1195
sI398
g1
((dp1196
tp1197
Rp1198
sI399
g1
((dp1199
tp1200
Rp1201
sI400
g1
((dp1202
tp1203
Rp1204
sI401
g1
((dp1205
tp1206
Rp1207
sI402
g1
((dp1208
tp1209
Rp1210
sI403
g1
((dp1211
tp1212
Rp1213
sI404
g1
((dp1214
tp1215
Rp1216
sI405
g1
((dp1217
tp1218
Rp1219
sI406
g1
((dp1220
tp1221
Rp1222
sI407
g1
((dp1223
tp1224
Rp1225
sI408
g1
((dp1226
tp1227
Rp1228
sI409
g1
((dp1229
tp1230
Rp1231
sI410
g1
((dp1232
tp1233
Rp1234
sI411
g1
((dp1235
tp1236
Rp1237
sI412
g1
((dp1238
tp1239
Rp1240
sI413
g1
((dp1241
tp1242
Rp1243
sI414
g1
((dp1244
tp1245
Rp1246
sI415
g1
((dp1247
tp1248
Rp1249
sI416
g1
((dp1250
tp1251
Rp1252
sI417
g1
((dp1253
tp1254
Rp1255
sI418
g1
((dp1256
tp1257
Rp1258
sI419
g1
((dp1259
tp1260
Rp1261
sI420
g1
((dp1262
tp1263
Rp1264
sI421
g1
((dp1265
tp1266
Rp1267
sI422
g1
((dp1268
tp1269
Rp1270
sI423
g1
((dp1271
tp1272
Rp1273
sI424
g1
((dp1274
tp1275
Rp1276
sI425
g1
((dp1277
tp1278
Rp1279
sI426
g1
((dp1280
tp1281
Rp1282
sI427
g1
((dp1283
tp1284
Rp1285
sI428
g1
((dp1286
tp1287
Rp1288
sI429
g1
((dp1289
tp1290
Rp1291
sI430
g1
((dp1292
tp1293
Rp1294
sI431
g1
((dp1295
tp1296
Rp1297
sI432
g1
((dp1298
tp1299
Rp1300
sI433
g1
((dp1301
tp1302
Rp1303
sI434
g1
((dp1304
tp1305
Rp1306
sI435
g1
((dp1307
tp1308
Rp1309
sI436
g1
((dp1310
tp1311
Rp1312
sI437
g1
((dp1313
tp1314
Rp1315
sI438
g1
((dp1316
tp1317
Rp1318
sI439
g1
((dp1319
tp1320
Rp1321
sI440
g1
((dp1322
tp1323
Rp1324
sI441
g1
((dp1325
tp1326
Rp1327
sI442
g1
((dp1328
tp1329
Rp1330
sI443
g1
((dp1331
tp1332
Rp1333
sI444
g1
((dp1334
tp1335
Rp1336
sI445
g1
((dp1337
tp1338
Rp1339
sI446
g1
((dp1340
tp1341
Rp1342
sI447
g1
((dp1343
tp1344
Rp1345
sI448
g1
((dp1346
tp1347
Rp1348
sI449
g1
((dp1349
tp1350
Rp1351
sI450
g1
((dp1352
tp1353
Rp1354
sI451
g1
((dp1355
tp1356
Rp1357
sI452
g1
((dp1358
tp1359
Rp1360
sI453
g1
((dp1361
tp1362
Rp1363
sI454
g1
((dp1364
tp1365
Rp1366
sI455
g1
((dp1367
tp1368
Rp1369
sI456
g1
((dp1370
tp1371
Rp1372
sI457
g1
((dp1373
tp1374
Rp1375
sI458
g1
((dp1376
tp1377
Rp1378
sI459
g1
((dp1379
tp1380
Rp1381
sI460
g1
((dp1382
tp1383
Rp1384
sI461
g1
((dp1385
tp1386
Rp1387
sI462
g1
((dp1388
tp1389
Rp1390
sI463
g1
((dp1391
tp1392
Rp1393
sI464
g1
((dp1394
tp1395
Rp1396
sI465
g1
((dp1397
tp1398
Rp1399
sI466
g1
((dp1400
tp1401
Rp1402
sI467
g1
((dp1403
tp1404
Rp1405
sI468
g1
((dp1406
tp1407
Rp1408
sI469
g1
((dp1409
tp1410
Rp1411
sI470
g1
((dp1412
tp1413
Rp1414
sI471
g1
((dp1415
tp1416
Rp1417
sI472
g1
((dp1418
tp1419
Rp1420
sI473
g1
((dp1421
tp1422
Rp1423
sI474
g1
((dp1424
tp1425
Rp1426
sI475
g1
((dp1427
tp1428
Rp1429
sI476
g1
((dp1430
tp1431
Rp1432
sI477
g1
((dp1433
tp1434
Rp1435
sI478
g1
((dp1436
tp1437
Rp1438
sI479
g1
((dp1439
tp1440
Rp1441
sI480
g1
((dp1442
tp1443
Rp1444
sI481
g1
((dp1445
tp1446
Rp1447
sI482
g1
((dp1448
tp1449
Rp1450
sI483
g1
((dp1451
tp1452
Rp1453
sI484
g1
((dp1454
tp1455
Rp1456
sI485
g1
((dp1457
tp1458
Rp1459
sI486
g1
((dp1460
tp1461
Rp1462
sI487
g1
((dp1463
tp1464
Rp1465
sI488
g1
((dp1466
tp1467
Rp1468
sI489
g1
((dp1469
tp1470
Rp1471
sI490
g1
((dp1472
tp1473
Rp1474
sI491
g1
((dp1475
tp1476
Rp1477
sI492
g1
((dp1478
tp1479
Rp1480
sI493
g1
((dp1481
tp1482
Rp1483
sI494
g1
((dp1484
tp1485
Rp1486
sI495
g1
((dp1487
tp1488
Rp1489
sI496
g1
((dp1490
tp1491
Rp1492
sI497
g1
((dp1493
tp1494
Rp1495
sI498
g1
((dp1496
tp1497
Rp1498
sI499
g1
((dp1499
tp1500
Rp1501
sI500
g1
((dp1502
tp1503
Rp1504
sI501
g1
((dp1505
tp1506
Rp1507
sI502
g1
((dp1508
tp1509
Rp1510
sI503
g1
((dp1511
tp1512
Rp1513
sI504
g1
((dp1514
tp1515
Rp1516
sI505
g1
((dp1517
tp1518
Rp1519
sI506
g1
((dp1520
tp1521
Rp1522
sI507
g1
((dp1523
tp1524
Rp1525
sI508
g1
((dp1526
tp1527
Rp1528
sI509
g1
((dp1529
tp1530
Rp1531
sI510
g1
((dp1532
tp1533
Rp1534
sI511
g1
((dp1535
tp1536
Rp1537
sI512
g1
((dp1538
tp1539
Rp1540
sI513
g1
((dp1541
tp1542
Rp1543
sI514
g1
((dp1544
tp1545
Rp1546
sI515
g1
((dp1547
tp1548
Rp1549
sI516
g1
((dp1550
tp1551
Rp1552
sI517
g1
((dp1553
tp1554
Rp1555
sI518
g1
((dp1556
tp1557
Rp1558
sI519
g1
((dp1559
tp1560
Rp1561
sI520
g1
((dp1562
tp1563
Rp1564
sI521
g1
((dp1565
tp1566
Rp1567
sI522
g1
((dp1568
tp1569
Rp1570
sI523
g1
((dp1571
tp1572
Rp1573
sI524
g1
((dp1574
tp1575
Rp1576
sI525
g1
((dp1577
tp1578
Rp1579
sI526
g1
((dp1580
tp1581
Rp1582
sI527
g1
((dp1583
tp1584
Rp1585
sI528
g1
((dp1586
tp1587
Rp1588
sI529
g1
((dp1589
tp1590
Rp1591
sI530
g1
((dp1592
tp1593
Rp1594
sI531
g1
((dp1595
tp1596
Rp1597
sI532
g1
((dp1598
tp1599
Rp1600
sI533
g1
((dp1601
tp1602
Rp1603
sI534
g1
((dp1604
tp1605
Rp1606
sI535
g1
((dp1607
tp1608
Rp1609
sI536
g1
((dp1610
tp1611
Rp1612
sI537
g1
((dp1613
tp1614
Rp1615
sI538
g1
((dp1616
tp1617
Rp1618
sI539
g1
((dp1619
tp1620
Rp1621
sI540
g1
((dp1622
tp1623
Rp1624
sI541
g1
((dp1625
tp1626
Rp1627
sI542
g1
((dp1628
tp1629
Rp1630
sI543
g1
((dp1631
tp1632
Rp1633
sI544
g1
((dp1634
tp1635
Rp1636
sI545
g1
((dp1637
tp1638
Rp1639
sI546
g1
((dp1640
tp1641
Rp1642
sI547
g1
((dp1643
tp1644
Rp1645
sI548
g1
((dp1646
tp1647
Rp1648
sI549
g1
((dp1649
tp1650
Rp1651
sI550
g1
((dp1652
tp1653
Rp1654
sI551
g1
((dp1655
tp1656
Rp1657
sI552
g1
((dp1658
tp1659
Rp1660
sI553
g1
((dp1661
tp1662
Rp1663
sI554
g1
((dp1664
tp1665
Rp1666
sI555
g1
((dp1667
tp1668
Rp1669
sI556
g1
((dp1670
tp1671
Rp1672
sI557
g1
((dp1673
tp1674
Rp1675
sI558
g1
((dp1676
tp1677
Rp1678
sI559
g1
((dp1679
tp1680
Rp1681
sI560
g1
((dp1682
tp1683
Rp1684
sI561
g1
((dp1685
tp1686
Rp1687
sI562
g1
((dp1688
tp1689
Rp1690
sI563
g1
((dp1691
tp1692
Rp1693
sI564
g1
((dp1694
tp1695
Rp1696
sI565
g1
((dp1697
tp1698
Rp1699
sI566
g1
((dp1700
tp1701
Rp1702
sI567
g1
((dp1703
tp1704
Rp1705
sI568
g1
((dp1706
tp1707
Rp1708
sI569
g1
((dp1709
tp1710
Rp1711
sI570
g1
((dp1712
tp1713
Rp1714
sI571
g1
((dp1715
tp1716
Rp1717
sI572
g1
((dp1718
tp1719
Rp1720
sI573
g1
((dp1721
tp1722
Rp1723
sI574
g1
((dp1724
tp1725
Rp1726
sI575
g1
((dp1727
tp1728
Rp1729
sI576
g1
((dp1730
tp1731
Rp1732
sI577
g1
((dp1733
tp1734
Rp1735
sI578
g1
((dp1736
tp1737
Rp1738
sI579
g1
((dp1739
tp1740
Rp1741
sI580
g1
((dp1742
tp1743
Rp1744
sI581
g1
((dp1745
tp1746
Rp1747
sI582
g1
((dp1748
tp1749
Rp1750
sI583
g1
((dp1751
tp1752
Rp1753
sI584
g1
((dp1754
tp1755
Rp1756
sI585
g1
((dp1757
tp1758
Rp1759
sI586
g1
((dp1760
tp1761
Rp1762
sI587
g1
((dp1763
tp1764
Rp1765
sI588
g1
((dp1766
tp1767
Rp1768
sI589
g1
((dp1769
tp1770
Rp1771
sI590
g1
((dp1772
tp1773
Rp1774
sI591
g1
((dp1775
tp1776
Rp1777
sI592
g1
((dp1778
tp1779
Rp1780
sI593
g1
((dp1781
tp1782
Rp1783
sI594
g1
((dp1784
tp1785
Rp1786
sI595
g1
((dp1787
tp1788
Rp1789
sI596
g1
((dp1790
tp1791
Rp1792
sI597
g1
((dp1793
tp1794
Rp1795
sI598
g1
((dp1796
tp1797
Rp1798
sI599
g1
((dp1799
tp1800
Rp1801
sI600
g1
((dp1802
tp1803
Rp1804
sI601
g1
((dp1805
tp1806
Rp1807
sI602
g1
((dp1808
tp1809
Rp1810
sI603
g1
((dp1811
tp1812
Rp1813
sI604
g1
((dp1814
tp1815
Rp1816
sI605
g1
((dp1817
tp1818
Rp1819
sI606
g1
((dp1820
tp1821
Rp1822
sI607
g1
((dp1823
tp1824
Rp1825
sI608
g1
((dp1826
tp1827
Rp1828
sI609
g1
((dp1829
tp1830
Rp1831
sI610
g1
((dp1832
tp1833
Rp1834
sI611
g1
((dp1835
tp1836
Rp1837
sI612
g1
((dp1838
tp1839
Rp1840
sI613
g1
((dp1841
tp1842
Rp1843
sI614
g1
((dp1844
tp1845
Rp1846
sI615
g1
((dp1847
tp1848
Rp1849
sI616
g1
((dp1850
tp1851
Rp1852
sI617
g1
((dp1853
tp1854
Rp1855
sI618
g1
((dp1856
tp1857
Rp1858
sI619
g1
((dp1859
tp1860
Rp1861
sI620
g1
((dp1862
tp1863
Rp1864
sI621
g1
((dp1865
tp1866
Rp1867
sI622
g1
((dp1868
tp1869
Rp1870
sI623
g1
((dp1871
tp1872
Rp1873
sI624
g1
((dp1874
tp1875
Rp1876
sI625
g1
((dp1877
tp1878
Rp1879
sI626
g1
((dp1880
tp1881
Rp1882
sI627
g1
((dp1883
tp1884
Rp1885
sI628
g1
((dp1886
tp1887
Rp1888
sI629
g1
((dp1889
tp1890
Rp1891
sI630
g1
((dp1892
tp1893
Rp1894
sI631
g1
((dp1895
tp1896
Rp1897
sI632
g1
((dp1898
tp1899
Rp1900
sI633
g1
((dp1901
tp1902
Rp1903
sI634
g1
((dp1904
tp1905
Rp1906
sI635
g1
((dp1907
tp1908
Rp1909
sI636
g1
((dp1910
tp1911
Rp1912
sI637
g1
((dp1913
tp1914
Rp1915
sI638
g1
((dp1916
tp1917
Rp1918
sI639
g1
((dp1919
tp1920
Rp1921
sI640
g1
((dp1922
tp1923
Rp1924
sI641
g1
((dp1925
tp1926
Rp1927
sI642
g1
((dp1928
tp1929
Rp1930
sI643
g1
((dp1931
tp1932
Rp1933
sI644
g1
((dp1934
tp1935
Rp1936
sI645
g1
((dp1937
tp1938
Rp1939
sI646
g1
((dp1940
tp1941
Rp1942
sI647
g1
((dp1943
tp1944
Rp1945
sI648
g1
((dp1946
tp1947
Rp1948
sI649
g1
((dp1949
tp1950
Rp1951
sI650
g1
((dp1952
tp1953
Rp1954
sI651
g1
((dp1955
tp1956
Rp1957
sI652
g1
((dp1958
tp1959
Rp1960
sI653
g1
((dp1961
tp1962
Rp1963
sI654
g1
((dp1964
tp1965
Rp1966
sI655
g1
((dp1967
tp1968
Rp1969
sI656
g1
((dp1970
tp1971
Rp1972
sI657
g1
((dp1973
tp1974
Rp1975
sI658
g1
((dp1976
tp1977
Rp1978
sI659
g1
((dp1979
tp1980
Rp1981
sI660
g1
((dp1982
tp1983
Rp1984
sI661
g1
((dp1985
tp1986
Rp1987
sI662
g1
((dp1988
tp1989
Rp1990
sI663
g1
((dp1991
tp1992
Rp1993
sI664
g1
((dp1994
tp1995
Rp1996
sI665
g1
((dp1997
tp1998
Rp1999
sI666
g1
((dp2000
tp2001
Rp2002
sI667
g1
((dp2003
tp2004
Rp2005
sI668
g1
((dp2006
tp2007
Rp2008
sI669
g1
((dp2009
tp2010
Rp2011
sI670
g1
((dp2012
tp2013
Rp2014
sI671
g1
((dp2015
tp2016
Rp2017
sI672
g1
((dp2018
tp2019
Rp2020
sI673
g1
((dp2021
tp2022
Rp2023
sI674
g1
((dp2024
tp2025
Rp2026
sI675
g1
((dp2027
tp2028
Rp2029
sI676
g1
((dp2030
tp2031
Rp2032
sI677
g1
((dp2033
tp2034
Rp2035
sI678
g1
((dp2036
tp2037
Rp2038
sI679
g1
((dp2039
tp2040
Rp2041
sI680
g1
((dp2042
tp2043
Rp2044
sI681
g1
((dp2045
tp2046
Rp2047
sI682
g1
((dp2048
tp2049
Rp2050
sI683
g1
((dp2051
tp2052
Rp2053
sI684
g1
((dp2054
tp2055
Rp2056
sI685
g1
((dp2057
tp2058
Rp2059
sI686
g1
((dp2060
tp2061
Rp2062
sI687
g1
((dp2063
tp2064
Rp2065
sI688
g1
((dp2066
tp2067
Rp2068
sI689
g1
((dp2069
tp2070
Rp2071
sI690
g1
((dp2072
tp2073
Rp2074
sI691
g1
((dp2075
tp2076
Rp2077
sI692
g1
((dp2078
tp2079
Rp2080
sI693
g1
((dp2081
tp2082
Rp2083
sI694
g1
((dp2084
tp2085
Rp2086
sI695
g1
((dp2087
tp2088
Rp2089
sI696
g1
((dp2090
tp2091
Rp2092
sI697
g1
((dp2093
tp2094
Rp2095
sI698
g1
((dp2096
tp2097
Rp2098
sI699
g1
((dp2099
tp2100
Rp2101
sI700
g1
((dp2102
tp2103
Rp2104
sI701
g1
((dp2105
tp2106
Rp2107
sI702
g1
((dp2108
tp2109
Rp2110
sI703
g1
((dp2111
tp2112
Rp2113
sI704
g1
((dp2114
tp2115
Rp2116
sI705
g1
((dp2117
tp2118
Rp2119
sI706
g1
((dp2120
tp2121
Rp2122
sI707
g1
((dp2123
tp2124
Rp2125
sI708
g1
((dp2126
tp2127
Rp2128
sI709
g1
((dp2129
tp2130
Rp2131
sI710
g1
((dp2132
tp2133
Rp2134
sI711
g1
((dp2135
tp2136
Rp2137
sI712
g1
((dp2138
tp2139
Rp2140
sI713
g1
((dp2141
tp2142
Rp2143
sI714
g1
((dp2144
tp2145
Rp2146
sI715
g1
((dp2147
tp2148
Rp2149
sI716
g1
((dp2150
tp2151
Rp2152
sI717
g1
((dp2153
tp2154
Rp2155
sI718
g1
((dp2156
tp2157
Rp2158
sI719
g1
((dp2159
tp2160
Rp2161
sI720
g1
((dp2162
tp2163
Rp2164
sI721
g1
((dp2165
tp2166
Rp2167
sI722
g1
((dp2168
tp2169
Rp2170
sI723
g1
((dp2171
tp2172
Rp2173
sI724
g1
((dp2174
tp2175
Rp2176
sI725
g1
((dp2177
tp2178
Rp2179
sI726
g1
((dp2180
tp2181
Rp2182
sI727
g1
((dp2183
tp2184
Rp2185
sI728
g1
((dp2186
tp2187
Rp2188
sI729
g1
((dp2189
tp2190
Rp2191
sI730
g1
((dp2192
tp2193
Rp2194
sI731
g1
((dp2195
tp2196
Rp2197
sI732
g1
((dp2198
tp2199
Rp2200
sI733
g1
((dp2201
tp2202
Rp2203
sI734
g1
((dp2204
tp2205
Rp2206
sI735
g1
((dp2207
tp2208
Rp2209
sI736
g1
((dp2210
tp2211
Rp2212
sI737
g1
((dp2213
tp2214
Rp2215
sI738
g1
((dp2216
tp2217
Rp2218
sI739
g1
((dp2219
tp2220
Rp2221
sI740
g1
((dp2222
tp2223
Rp2224
sI741
g1
((dp2225
tp2226
Rp2227
sI742
g1
((dp2228
tp2229
Rp2230
sI743
g1
((dp2231
tp2232
Rp2233
sI744
g1
((dp2234
tp2235
Rp2236
sI745
g1
((dp2237
tp2238
Rp2239
sI746
g1
((dp2240
tp2241
Rp2242
sI747
g1
((dp2243
tp2244
Rp2245
sI748
g1
((dp2246
tp2247
Rp2248
sI749
g1
((dp2249
tp2250
Rp2251
sI750
g1
((dp2252
tp2253
Rp2254
sI751
g1
((dp2255
tp2256
Rp2257
sI752
g1
((dp2258
tp2259
Rp2260
sI753
g1
((dp2261
tp2262
Rp2263
sI754
g1
((dp2264
tp2265
Rp2266
sI755
g1
((dp2267
tp2268
Rp2269
sI756
g1
((dp2270
tp2271
Rp2272
sI757
g1
((dp2273
tp2274
Rp2275
sI758
g1
((dp2276
tp2277
Rp2278
sI759
g1
((dp2279
tp2280
Rp2281
sI760
g1
((dp2282
tp2283
Rp2284
sI761
g1
((dp2285
tp2286
Rp2287
sI762
g1
((dp2288
tp2289
Rp2290
sI763
g1
((dp2291
tp2292
Rp2293
sI764
g1
((dp2294
tp2295
Rp2296
sI765
g1
((dp2297
tp2298
Rp2299
sI766
g1
((dp2300
tp2301
Rp2302
sI767
g1
((dp2303
tp2304
Rp2305
sI768
g1
((dp2306
tp2307
Rp2308
sI769
g1
((dp2309
tp2310
Rp2311
sI770
g1
((dp2312
tp2313
Rp2314
sI771
g1
((dp2315
tp2316
Rp2317
sI772
g1
((dp2318
tp2319
Rp2320
sI773
g1
((dp2321
tp2322
Rp2323
sI774
g1
((dp2324
tp2325
Rp2326
sI775
g1
((dp2327
tp2328
Rp2329
sI776
g1
((dp2330
tp2331
Rp2332
sI777
g1
((dp2333
tp2334
Rp2335
sI778
g1
((dp2336
tp2337
Rp2338
sI779
g1
((dp2339
tp2340
Rp2341
sI780
g1
((dp2342
tp2343
Rp2344
sI781
g1
((dp2345
tp2346
Rp2347
sI782
g1
((dp2348
tp2349
Rp2350
sI783
g1
((dp2351
tp2352
Rp2353
sI784
g1
((dp2354
tp2355
Rp2356
sI785
g1
((dp2357
tp2358
Rp2359
sI786
g1
((dp2360
tp2361
Rp2362
sI787
g1
((dp2363
tp2364
Rp2365
sI788
g1
((dp2366
tp2367
Rp2368
sI789
g1
((dp2369
tp2370
Rp2371
sI790
g1
((dp2372
tp2373
Rp2374
sI791
g1
((dp2375
tp2376
Rp2377
sI792
g1
((dp2378
tp2379
Rp2380
sI793
g1
((dp2381
tp2382
Rp2383
sI794
g1
((dp2384
tp2385
Rp2386
sI795
g1
((dp2387
tp2388
Rp2389
sI796
g1
((dp2390
tp2391
Rp2392
sI797
g1
((dp2393
tp2394
Rp2395
sI798
g1
((dp2396
tp2397
Rp2398
sI799
g1
((dp2399
tp2400
Rp2401
sI800
g1
((dp2402
tp2403
Rp2404
sI801
g1
((dp2405
tp2406
Rp2407
sI802
g1
((dp2408
tp2409
Rp2410
sI803
g1
((dp2411
tp2412
Rp2413
sI804
g1
((dp2414
tp2415
Rp2416
sI805
g1
((dp2417
tp2418
Rp2419
sI806
g1
((dp2420
tp2421
Rp2422
sI807
g1
((dp2423
tp2424
Rp2425
sI808
g1
((dp2426
tp2427
Rp2428
sI809
g1
((dp2429
tp2430
Rp2431
sI810
g1
((dp2432
tp2433
Rp2434
sI811
g1
((dp2435
tp2436
Rp2437
sI812
g1
((dp2438
tp2439
Rp2440
sI813
g1
((dp2441
tp2442
Rp2443
sI814
g1
((dp2444
tp2445
Rp2446
sI815
g1
((dp2447
tp2448
Rp2449
sI816
g1
((dp2450
tp2451
Rp2452
sI817
g1
((dp2453
tp2454
Rp2455
sI818
g1
((dp2456
tp2457
Rp2458
sI819
g1
((dp2459
tp2460
Rp2461
sI820
g1
((dp2462
tp2463
Rp2464
sI821
g1
((dp2465
tp2466
Rp2467
sI822
g1
((dp2468
tp2469
Rp2470
sI823
g1
((dp2471
tp2472
Rp2473
sI824
g1
((dp2474
tp2475
Rp2476
sI825
g1
((dp2477
tp2478
Rp2479
sI826
g1
((dp2480
tp2481
Rp2482
sI827
g1
((dp2483
tp2484
Rp2485
sI828
g1
((dp2486
tp2487
Rp2488
sI829
g1
((dp2489
tp2490
Rp2491
sI830
g1
((dp2492
tp2493
Rp2494
sI831
g1
((dp2495
tp2496
Rp2497
sI832
g1
((dp2498
tp2499
Rp2500
sI833
g1
((dp2501
tp2502
Rp2503
sI834
g1
((dp2504
tp2505
Rp2506
sI835
g1
((dp2507
tp2508
Rp2509
sI836
g1
((dp2510
tp2511
Rp2512
sI837
g1
((dp2513
tp2514
Rp2515
sI838
g1
((dp2516
tp2517
Rp2518
sI839
g1
((dp2519
tp2520
Rp2521
sI840
g1
((dp2522
tp2523
Rp2524
sI841
g1
((dp2525
tp2526
Rp2527
sI842
g1
((dp2528
tp2529
Rp2530
sI843
g1
((dp2531
tp2532
Rp2533
sI844
g1
((dp2534
tp2535
Rp2536
sI845
g1
((dp2537
tp2538
Rp2539
sI846
g1
((dp2540
tp2541
Rp2542
sI847
g1
((dp2543
tp2544
Rp2545
sI848
g1
((dp2546
tp2547
Rp2548
sI849
g1
((dp2549
tp2550
Rp2551
sI850
g1
((dp2552
tp2553
Rp2554
sI851
g1
((dp2555
tp2556
Rp2557
sI852
g1
((dp2558
tp2559
Rp2560
sI853
g1
((dp2561
tp2562
Rp2563
sI854
g1
((dp2564
tp2565
Rp2566
sI855
g1
((dp2567
tp2568
Rp2569
sI856
g1
((dp2570
tp2571
Rp2572
sI857
g1
((dp2573
tp2574
Rp2575
sI858
g1
((dp2576
tp2577
Rp2578
sI859
g1
((dp2579
tp2580
Rp2581
sI860
g1
((dp2582
tp2583
Rp2584
sI861
g1
((dp2585
tp2586
Rp2587
sI862
g1
((dp2588
tp2589
Rp2590
sI863
g1
((dp2591
tp2592
Rp2593
sI864
g1
((dp2594
tp2595
Rp2596
sI865
g1
((dp2597
tp2598
Rp2599
sI866
g1
((dp2600
tp2601
Rp2602
sI867
g1
((dp2603
tp2604
Rp2605
sI868
g1
((dp2606
tp2607
Rp2608
sI869
g1
((dp2609
tp2610
Rp2611
sI870
g1
((dp2612
tp2613
Rp2614
sI871
g1
((dp2615
tp2616
Rp2617
sI872
g1
((dp2618
tp2619
Rp2620
sI873
g1
((dp2621
tp2622
Rp2623
sI874
g1
((dp2624
tp2625
Rp2626
sI875
g1
((dp2627
tp2628
Rp2629
sI876
g1
((dp2630
tp2631
Rp2632
sI877
g1
((dp2633
tp2634
Rp2635
sI878
g1
((dp2636
tp2637
Rp2638
sI879
g1
((dp2639
tp2640
Rp2641
sI880
g1
((dp2642
tp2643
Rp2644
sI881
g1
((dp2645
tp2646
Rp2647
sI882
g1
((dp2648
tp2649
Rp2650
sI883
g1
((dp2651
tp2652
Rp2653
sI884
g1
((dp2654
tp2655
Rp2656
sI885
g1
((dp2657
tp2658
Rp2659
sI886
g1
((dp2660
tp2661
Rp2662
sI887
g1
((dp2663
tp2664
Rp2665
sI888
g1
((dp2666
tp2667
Rp2668
sI889
g1
((dp2669
tp2670
Rp2671
sI890
g1
((dp2672
tp2673
Rp2674
sI891
g1
((dp2675
tp2676
Rp2677
sI892
g1
((dp2678
tp2679
Rp2680
sI893
g1
((dp2681
tp2682
Rp2683
sI894
g1
((dp2684
tp2685
Rp2686
sI895
g1
((dp2687
tp2688
Rp2689
sI896
g1
((dp2690
tp2691
Rp2692
sI897
g1
((dp2693
tp2694
Rp2695
sI898
g1
((dp2696
tp2697
Rp2698
sI899
g1
((dp2699
tp2700
Rp2701
sI900
g1
((dp2702
tp2703
Rp2704
sI901
g1
((dp2705
tp2706
Rp2707
sI902
g1
((dp2708
tp2709
Rp2710
sI903
g1
((dp2711
tp2712
Rp2713
sI904
g1
((dp2714
tp2715
Rp2716
sI905
g1
((dp2717
tp2718
Rp2719
sI906
g1
((dp2720
tp2721
Rp2722
sI907
g1
((dp2723
tp2724
Rp2725
sI908
g1
((dp2726
tp2727
Rp2728
sI909
g1
((dp2729
tp2730
Rp2731
sI910
g1
((dp2732
tp2733
Rp2734
sI911
g1
((dp2735
tp2736
Rp2737
sI912
g1
((dp2738
tp2739
Rp2740
sI913
g1
((dp2741
tp2742
Rp2743
sI914
g1
((dp2744
tp2745
Rp2746
sI915
g1
((dp2747
tp2748
Rp2749
sI916
g1
((dp2750
tp2751
Rp2752
sI917
g1
((dp2753
tp2754
Rp2755
sI918
g1
((dp2756
tp2757
Rp2758
sI919
g1
((dp2759
tp2760
Rp2761
sI920
g1
((dp2762
tp2763
Rp2764
sI921
g1
((dp2765
tp2766
Rp2767
sI922
g1
((dp2768
tp2769
Rp2770
sI923
g1
((dp2771
tp2772
Rp2773
sI924
g1
((dp2774
tp2775
Rp2776
sI925
g1
((dp2777
tp2778
Rp2779
sI926
g1
((dp2780
tp2781
Rp2782
sI927
g1
((dp2783
tp2784
Rp2785
sI928
g1
((dp2786
tp2787
Rp2788
sI929
g1
((dp2789
tp2790
Rp2791
sI930
g1
((dp2792
tp2793
Rp2794
sI931
g1
((dp2795
tp2796
Rp2797
sI932
g1
((dp2798
tp2799
Rp2800
sI933
g1
((dp2801
tp2802
Rp2803
sI934
g1
((dp2804
tp2805
Rp2806
sI935
g1
((dp2807
tp2808
Rp2809
sI936
g1
((dp2810
tp2811
Rp2812
sI937
g1
((dp2813
tp2814
Rp2815
sI938
g1
((dp2816
tp2817
Rp2818
sI939
g1
((dp2819
tp2820
Rp2821
sI940
g1
((dp2822
tp2823
Rp2824
sI941
g1
((dp2825
tp2826
Rp2827
sI942
g1
((dp2828
tp2829
Rp2830
sI943
g1
((dp2831
tp2832
Rp2833
sI944
g1
((dp2834
tp2835
Rp2836
sI945
g1
((dp2837
tp2838
Rp2839
sI946
g1
((dp2840
tp2841
Rp2842
sI947
g1
((dp2843
tp2844
Rp2845
sI948
g1
((dp2846
tp2847
Rp2848
sI949
g1
((dp2849
tp2850
Rp2851
sI950
g1
((dp2852
tp2853
Rp2854
sI951
g1
((dp2855
tp2856
Rp2857
sI952
g1
((dp2858
tp2859
Rp2860
sI953
g1
((dp2861
tp2862
Rp2863
sI954
g1
((dp2864
tp2865
Rp2866
sI955
g1
((dp2867
tp2868
Rp2869
sI956
g1
((dp2870
tp2871
Rp2872
sI957
g1
((dp2873
tp2874
Rp2875
sI958
g1
((dp2876
tp2877
Rp2878
sI959
g1
((dp2879
tp2880
Rp2881
sI960
g1
((dp2882
tp2883
Rp2884
sI961
g1
((dp2885
tp2886
Rp2887
sI962
g1
((dp2888
tp2889
Rp2890
sI963
g1
((dp2891
tp2892
Rp2893
sI964
g1
((dp2894
tp2895
Rp2896
sI965
g1
((dp2897
tp2898
Rp2899
sI966
g1
((dp2900
tp2901
Rp2902
sI967
g1
((dp2903
tp2904
Rp2905
sI968
g1
((dp2906
tp2907
Rp2908
sI969
g1
((dp2909
tp2910
Rp2911
sI970
g1
((dp2912
tp2913
Rp2914
sI971
g1
((dp2915
tp2916
Rp2917
sI972
g1
((dp2918
tp2919
Rp2920
sI973
g1
((dp2921
tp2922
Rp2923
sI974
g1
((dp2924
tp2925
Rp2926
sI975
g1
((dp2927
tp2928
Rp2929
sI976
g1
((dp2930
tp2931
Rp2932
sI977
g1
((dp2933
tp2934
Rp2935
sI978
g1
((dp2936
tp2937
Rp2938
sI979
g1
((dp2939
tp2940
Rp2941
sI980
g1
((dp2942
tp2943
Rp2944
sI981
g1
((dp2945
tp2946
Rp2947
sI982
g1
((dp2948
tp2949
Rp2950
sI983
g1
((dp2951
tp2952
Rp2953
sI984
g1
((dp2954
tp2955
Rp2956
sI985
g1
((dp2957
tp2958
Rp2959
sI986
g1
((dp2960
tp2961
Rp2962
sI987
g1
((dp2963
tp2964
Rp2965
sI988
g1
((dp2966
tp2967
Rp2968
sI989
g1
((dp2969
tp2970
Rp2971
sI990
g1
((dp2972
tp2973
Rp2974
sI991
g1
((dp2975
tp2976
Rp2977
sI992
g1
((dp2978
tp2979
Rp2980
sI993
g1
((dp2981
tp2982
Rp2983
sI994
g1
((dp2984
tp2985
Rp2986
sI995
g1
((dp2987
tp2988
Rp2989
sI996
g1
((dp2990
tp2991
Rp2992
sI997
g1
((dp2993
tp2994
Rp2995
sI998
g1
((dp2996
tp2997
Rp2998
sI999
g1
((dp2999
tp3000
Rp3001
sI1000
g1
((dp3002
tp3003
Rp3004
sI1001
g1
((dp3005
tp3006
Rp3007
sI1002
g1
((dp3008
tp3009
Rp3010
sI1003
g1
((dp3011
tp3012
Rp3013
sI1004
g1
((dp3014
tp3015
Rp3016
sI1005
g1
((dp3017
tp3018
Rp3019
sI1006
g1
((dp3020
tp3021
Rp3022
sI1007
g1
((dp3023
tp3024
Rp3025
sI1008
g1
((dp3026
tp3027
Rp3028
sI1009
g1
((dp3029
tp3030
Rp3031
sI1010
g1
((dp3032
tp3033
Rp3034
sI1011
g1
((dp3035
tp3036
Rp3037
sI1012
g1
((dp3038
tp3039
Rp3040
sI1013
g1
((dp3041
tp3042
Rp3043
sI1014
g1
((dp3044
tp3045
Rp3046
sI1015
g1
((dp3047
tp3048
Rp3049
sI1016
g1
((dp3050
tp3051
Rp3052
sI1017
g1
((dp3053
tp3054
Rp3055
sI1018
g1
((dp3056
tp3057
Rp3058
sI1019
g1
((dp3059
tp3060
Rp3061
sI1020
g1
((dp3062
tp3063
Rp3064
sI1021
g1
((dp3065
tp3066
Rp3067
sI1022
g1
((dp3068
tp3069
Rp3070
sI1023
g1
((dp3071
tp3072
Rp3073
sI1024
g1
((dp3074
tp3075
Rp3076
sI1025
g1
((dp3077
tp3078
Rp3079
sI1026
g1
((dp3080
tp3081
Rp3082
sI1027
g1
((dp3083
tp3084
Rp3085
sI1028
g1
((dp3086
tp3087
Rp3088
sI1029
g1
((dp3089
tp3090
Rp3091
sI1030
g1
((dp3092
tp3093
Rp3094
sI1031
g1
((dp3095
tp3096
Rp3097
sI1032
g1
((dp3098
tp3099
Rp3100
sI1033
g1
((dp3101
tp3102
Rp3103
sI1034
g1
((dp3104
tp3105
Rp3106
sI1035
g1
((dp3107
tp3108
Rp3109
sI1036
g1
((dp3110
tp3111
Rp3112
sI1037
g1
((dp3113
tp3114
Rp3115
sI1038
g1
((dp3116
tp3117
Rp3118
sI1039
g1
((dp3119
tp3120
Rp3121
sI1040
g1
((dp3122
tp3123
Rp3124
sI1041
g1
((dp3125
tp3126
Rp3127
sI1042
g1
((dp3128
tp3129
Rp3130
sI1043
g1
((dp3131
tp3132
Rp3133
sI1044
g1
((dp3134
tp3135
Rp3136
sI1045
g1
((dp3137
tp3138
Rp3139
sI1046
g1
((dp3140
tp3141
Rp3142
sI1047
g1
((dp3143
tp3144
Rp3145
sI1048
g1
((dp3146
tp3147
Rp3148
sI1049
g1
((dp3149
tp3150
Rp3151
sI1050
g1
((dp3152
tp3153
Rp3154
sI1051
g1
((dp3155
tp3156
Rp3157
sI1052
g1
((dp3158
tp3159
Rp3160
sI1053
g1
((dp3161
tp3162
Rp3163
sI1054
g1
((dp3164
tp3165
Rp3166
sI1055
g1
((dp3167
tp3168
Rp3169
sI1056
g1
((dp3170
tp3171
Rp3172
sI1057
g1
((dp3173
tp3174
Rp3175
sI1058
g1
((dp3176
tp3177
Rp3178
sI1059
g1
((dp3179
tp3180
Rp3181
sI1060
g1
((dp3182
tp3183
Rp3184
sI1061
g1
((dp3185
tp3186
Rp3187
sI1062
g1
((dp3188
tp3189
Rp3190
sI1063
g1
((dp3191
tp3192
Rp3193
sI1064
g1
((dp3194
tp3195
Rp3196
sI1065
g1
((dp3197
tp3198
Rp3199
sI1066
g1
((dp3200
tp3201
Rp3202
sI1067
g1
((dp3203
tp3204
Rp3205
sI1068
g1
((dp3206
tp3207
Rp3208
sI1069
g1
((dp3209
tp3210
Rp3211
sI1070
g1
((dp3212
tp3213
Rp3214
sI1071
g1
((dp3215
tp3216
Rp3217
sI1072
g1
((dp3218
tp3219
Rp3220
sI1073
g1
((dp3221
tp3222
Rp3223
sI1074
g1
((dp3224
tp3225
Rp3226
sI1075
g1
((dp3227
tp3228
Rp3229
sI1076
g1
((dp3230
tp3231
Rp3232
sI1077
g1
((dp3233
tp3234
Rp3235
sI1078
g1
((dp3236
tp3237
Rp3238
sI1079
g1
((dp3239
tp3240
Rp3241
sI1080
g1
((dp3242
tp3243
Rp3244
sI1081
g1
((dp3245
tp3246
Rp3247
sI1082
g1
((dp3248
tp3249
Rp3250
sI1083
g1
((dp3251
tp3252
Rp3253
sI1084
g1
((dp3254
tp3255
Rp3256
sI1085
g1
((dp3257
tp3258
Rp3259
sI1086
g1
((dp3260
tp3261
Rp3262
sI1087
g1
((dp3263
tp3264
Rp3265
sI1088
g1
((dp3266
tp3267
Rp3268
sI1089
g1
((dp3269
tp3270
Rp3271
sI1090
g1
((dp3272
tp3273
Rp3274
sI1091
g1
((dp3275
tp3276
Rp3277
sI1092
g1
((dp3278
tp3279
Rp3280
sI1093
g1
((dp3281
tp3282
Rp3283
sI1094
g1
((dp3284
tp3285
Rp3286
sI1095
g1
((dp3287
tp3288
Rp3289
sI1096
g1
((dp3290
tp3291
Rp3292
sI1097
g1
((dp3293
tp3294
Rp3295
sI1098
g1
((dp3296
tp3297
Rp3298
sI1099
g1
((dp3299
tp3300
Rp3301
sI1100
g1
((dp3302
tp3303
Rp3304
sI1101
g1
((dp3305
tp3306
Rp3307
sI1102
g1
((dp3308
tp3309
Rp3310
sI1103
g1
((dp3311
tp3312
Rp3313
sI1104
g1
((dp3314
tp3315
Rp3316
sI1105
g1
((dp3317
tp3318
Rp3319
sI1106
g1
((dp3320
tp3321
Rp3322
sI1107
g1
((dp3323
tp3324
Rp3325
sI1108
g1
((dp3326
tp3327
Rp3328
sI1109
g1
((dp3329
tp3330
Rp3331
sI1110
g1
((dp3332
tp3333
Rp3334
sI1111
g1
((dp3335
tp3336
Rp3337
sI1112
g1
((dp3338
tp3339
Rp3340
sI1113
g1
((dp3341
tp3342
Rp3343
sI1114
g1
((dp3344
tp3345
Rp3346
sI1115
g1
((dp3347
tp3348
Rp3349
sI1116
g1
((dp3350
tp3351
Rp3352
sI1117
g1
((dp3353
tp3354
Rp3355
sI1118
g1
((dp3356
tp3357
Rp3358
sI1119
g1
((dp3359
tp3360
Rp3361
sI1120
g1
((dp3362
tp3363
Rp3364
sI1121
g1
((dp3365
tp3366
Rp3367
sI1122
g1
((dp3368
tp3369
Rp3370
sI1123
g1
((dp3371
tp3372
Rp3373
sI1124
g1
((dp3374
tp3375
Rp3376
sI1125
g1
((dp3377
tp3378
Rp3379
sI1126
g1
((dp3380
tp3381
Rp3382
sI1127
g1
((dp3383
tp3384
Rp3385
sI1128
g1
((dp3386
tp3387
Rp3388
sI1129
g1
((dp3389
tp3390
Rp3391
sI1130
g1
((dp3392
tp3393
Rp3394
sI1131
g1
((dp3395
tp3396
Rp3397
sI1132
g1
((dp3398
tp3399
Rp3400
sI1133
g1
((dp3401
tp3402
Rp3403
sI1134
g1
((dp3404
tp3405
Rp3406
sI1135
g1
((dp3407
tp3408
Rp3409
sI1136
g1
((dp3410
tp3411
Rp3412
sI1137
g1
((dp3413
tp3414
Rp3415
sI1138
g1
((dp3416
tp3417
Rp3418
sI1139
g1
((dp3419
tp3420
Rp3421
sI1140
g1
((dp3422
tp3423
Rp3424
sI1141
g1
((dp3425
tp3426
Rp3427
sI1142
g1
((dp3428
tp3429
Rp3430
sI1143
g1
((dp3431
tp3432
Rp3433
sI1144
g1
((dp3434
tp3435
Rp3436
sI1145
g1
((dp3437
tp3438
Rp3439
sI1146
g1
((dp3440
tp3441
Rp3442
sI1147
g1
((dp3443
tp3444
Rp3445
sI1148
g1
((dp3446
tp3447
Rp3448
sI1149
g1
((dp3449
tp3450
Rp3451
sI1150
g1
((dp3452
tp3453
Rp3454
sI1151
g1
((dp3455
tp3456
Rp3457
sI1152
g1
((dp3458
tp3459
Rp3460
sI1153
g1
((dp3461
tp3462
Rp3463
sI1154
g1
((dp3464
tp3465
Rp3466
sI1155
g1
((dp3467
tp3468
Rp3469
sI1156
g1
((dp3470
tp3471
Rp3472
sI1157
g1
((dp3473
tp3474
Rp3475
sI1158
g1
((dp3476
tp3477
Rp3478
sI1159
g1
((dp3479
tp3480
Rp3481
sI1160
g1
((dp3482
tp3483
Rp3484
sI1161
g1
((dp3485
tp3486
Rp3487
sI1162
g1
((dp3488
tp3489
Rp3490
sI1163
g1
((dp3491
tp3492
Rp3493
sI1164
g1
((dp3494
tp3495
Rp3496
sI1165
g1
((dp3497
tp3498
Rp3499
sI1166
g1
((dp3500
tp3501
Rp3502
sI1167
g1
((dp3503
tp3504
Rp3505
sI1168
g1
((dp3506
tp3507
Rp3508
sI1169
g1
((dp3509
tp3510
Rp3511
sI1170
g1
((dp3512
tp3513
Rp3514
sI1171
g1
((dp3515
tp3516
Rp3517
sI1172
g1
((dp3518
tp3519
Rp3520
sI1173
g1
((dp3521
tp3522
Rp3523
sI1174
g1
((dp3524
tp3525
Rp3526
sI1175
g1
((dp3527
tp3528
Rp3529
sI1176
g1
((dp3530
tp3531
Rp3532
sI1177
g1
((dp3533
tp3534
Rp3535
sI1178
g1
((dp3536
tp3537
Rp3538
sI1179
g1
((dp3539
tp3540
Rp3541
sI1180
g1
((dp3542
tp3543
Rp3544
sI1181
g1
((dp3545
tp3546
Rp3547
sI1182
g1
((dp3548
tp3549
Rp3550
sI1183
g1
((dp3551
tp3552
Rp3553
sI1184
g1
((dp3554
tp3555
Rp3556
sI1185
g1
((dp3557
tp3558
Rp3559
sI1186
g1
((dp3560
tp3561
Rp3562
sI1187
g1
((dp3563
tp3564
Rp3565
sI1188
g1
((dp3566
tp3567
Rp3568
sI1189
g1
((dp3569
tp3570
Rp3571
sI1190
g1
((dp3572
tp3573
Rp3574
sI1191
g1
((dp3575
tp3576
Rp3577
sI1192
g1
((dp3578
tp3579
Rp3580
sI1193
g1
((dp3581
tp3582
Rp3583
sI1194
g1
((dp3584
tp3585
Rp3586
sI1195
g1
((dp3587
tp3588
Rp3589
sI1196
g1
((dp3590
tp3591
Rp3592
sI1197
g1
((dp3593
tp3594
Rp3595
sI1198
g1
((dp3596
tp3597
Rp3598
sI1199
g1
((dp3599
tp3600
Rp3601
sI1200
g1
((dp3602
tp3603
Rp3604
sI1201
g1
((dp3605
tp3606
Rp3607
sI1202
g1
((dp3608
tp3609
Rp3610
sI1203
g1
((dp3611
tp3612
Rp3613
sI1204
g1
((dp3614
tp3615
Rp3616
sI1205
g1
((dp3617
tp3618
Rp3619
sI1206
g1
((dp3620
tp3621
Rp3622
sI1207
g1
((dp3623
tp3624
Rp3625
sI1208
g1
((dp3626
tp3627
Rp3628
sI1209
g1
((dp3629
tp3630
Rp3631
sI1210
g1
((dp3632
tp3633
Rp3634
sI1211
g1
((dp3635
tp3636
Rp3637
sI1212
g1
((dp3638
tp3639
Rp3640
sI1213
g1
((dp3641
tp3642
Rp3643
sI1214
g1
((dp3644
tp3645
Rp3646
sI1215
g1
((dp3647
tp3648
Rp3649
sI1216
g1
((dp3650
tp3651
Rp3652
sI1217
g1
((dp3653
tp3654
Rp3655
sI1218
g1
((dp3656
tp3657
Rp3658
sI1219
g1
((dp3659
tp3660
Rp3661
sI1220
g1
((dp3662
tp3663
Rp3664
sI1221
g1
((dp3665
tp3666
Rp3667
sI1222
g1
((dp3668
tp3669
Rp3670
sI1223
g1
((dp3671
tp3672
Rp3673
sI1224
g1
((dp3674
tp3675
Rp3676
sI1225
g1
((dp3677
tp3678
Rp3679
sI1226
g1
((dp3680
tp3681
Rp3682
sI1227
g1
((dp3683
tp3684
Rp3685
sI1228
g1
((dp3686
tp3687
Rp3688
sI1229
g1
((dp3689
tp3690
Rp3691
sI1230
g1
((dp3692
tp3693
Rp3694
sI1231
g1
((dp3695
tp3696
Rp3697
sI1232
g1
((dp3698
tp3699
Rp3700
sI1233
g1
((dp3701
tp3702
Rp3703
sI1234
g1
((dp3704
tp3705
Rp3706
sI1235
g1
((dp3707
tp3708
Rp3709
sI1236
g1
((dp3710
tp3711
Rp3712
sI1237
g1
((dp3713
tp3714
Rp3715
sI1238
g1
((dp3716
tp3717
Rp3718
sI1239
g1
((dp3719
tp3720
Rp3721
sI1240
g1
((dp3722
tp3723
Rp3724
sI1241
g1
((dp3725
tp3726
Rp3727
sI1242
g1
((dp3728
tp3729
Rp3730
sI1243
g1
((dp3731
tp3732
Rp3733
sI1244
g1
((dp3734
tp3735
Rp3736
sI1245
g1
((dp3737
tp3738
Rp3739
sI1246
g1
((dp3740
tp3741
Rp3742
sI1247
g1
((dp3743
tp3744
Rp3745
sI1248
g1
((dp3746
tp3747
Rp3748
sI1249
g1
((dp3749
tp3750
Rp3751
sI1250
g1
((dp3752
tp3753
Rp3754
sI1251
g1
((dp3755
tp3756
Rp3757
sI1252
g1
((dp3758
tp3759
Rp3760
s.